?$TSS0@?1??instance@service_manager@async@@SAAEAV23@XZ@4HA
??0ActiveCompress@server@mobile@@QEAA@AEBV012@@Z
??0ActiveCompress@server@mobile@@QEAA@XZ
??0CallDBRequest@server@mobile@@QEAA@AEBV012@@Z
??0CallDBRequest@server@mobile@@QEAA@XZ
??0CallDBResponse@server@mobile@@QEAA@AEBV012@@Z
??0CallDBResponse@server@mobile@@QEAA@XZ
??0CallbackId@server@mobile@@QEAA@AEBV012@@Z
??0CallbackId@server@mobile@@QEAA@XZ
??0ClientBindMsg@server@mobile@@QEAA@AEBV012@@Z
??0ClientBindMsg@server@mobile@@QEAA@XZ
??0ClientInfo@server@mobile@@QEAA@AEBV012@@Z
??0ClientInfo@server@mobile@@QEAA@XZ
??0CountDocReply@server@mobile@@QEAA@AEBV012@@Z
??0CountDocReply@server@mobile@@QEAA@XZ
??0CountDocRequest@server@mobile@@QEAA@AEBV012@@Z
??0CountDocRequest@server@mobile@@QEAA@XZ
??0CreateCollectionReply@server@mobile@@QEAA@AEBV012@@Z
??0CreateCollectionReply@server@mobile@@QEAA@XZ
??0CreateCollectionRequest@server@mobile@@QEAA@AEBV012@@Z
??0CreateCollectionRequest@server@mobile@@QEAA@XZ
??0CtrlType@server@mobile@@QEAA@AEBV012@@Z
??0CtrlType@server@mobile@@QEAA@XZ
??0CustomServiceInfo@server@mobile@@QEAA@AEBV012@@Z
??0CustomServiceInfo@server@mobile@@QEAA@XZ
??0CustomServiceMsg@server@mobile@@QEAA@AEBV012@@Z
??0CustomServiceMsg@server@mobile@@QEAA@XZ
??0DbServerInfo@server@mobile@@QEAA@AEBV012@@Z
??0DbServerInfo@server@mobile@@QEAA@XZ
??0DbStatusMessage@server@mobile@@QEAA@AEBV012@@Z
??0DbStatusMessage@server@mobile@@QEAA@XZ
??0DeleteDocReply@server@mobile@@QEAA@AEBV012@@Z
??0DeleteDocReply@server@mobile@@QEAA@XZ
??0DeleteDocRequest@server@mobile@@QEAA@AEBV012@@Z
??0DeleteDocRequest@server@mobile@@QEAA@XZ
??0EncryptString@server@mobile@@QEAA@AEBV012@@Z
??0EncryptString@server@mobile@@QEAA@XZ
??0EntityInfoHeader@server@mobile@@QEAA@AEBV012@@Z
??0EntityInfoHeader@server@mobile@@QEAA@XZ
??0ExtGroupTaskManager@Blast@Nv@@QEAA@AEBV012@@Z
??0ExtGroupTaskManager@Blast@Nv@@QEAA@XZ
??0ExtImpactDamageManager@Blast@Nv@@QEAA@$$QEAV012@@Z
??0ExtImpactDamageManager@Blast@Nv@@QEAA@AEBV012@@Z
??0ExtImpactDamageManager@Blast@Nv@@QEAA@XZ
??0ExtPxManager@Blast@Nv@@QEAA@$$QEAV012@@Z
??0ExtPxManager@Blast@Nv@@QEAA@AEBV012@@Z
??0ExtPxManager@Blast@Nv@@QEAA@XZ
??0ExtPxStressSolver@Blast@Nv@@QEAA@$$QEAV012@@Z
??0ExtPxStressSolver@Blast@Nv@@QEAA@AEBV012@@Z
??0ExtPxStressSolver@Blast@Nv@@QEAA@XZ
??0ExtStressSolver@Blast@Nv@@QEAA@$$QEAV012@@Z
??0ExtStressSolver@Blast@Nv@@QEAA@AEBV012@@Z
??0ExtStressSolver@Blast@Nv@@QEAA@XZ
??0FilterDataObj@server@mobile@@QEAA@AEBV012@@Z
??0FilterDataObj@server@mobile@@QEAA@XZ
??0FilterUserDatas@server@mobile@@QEAA@AEBV012@@Z
??0FilterUserDatas@server@mobile@@QEAA@XZ
??0FindAndModifyDocReply@server@mobile@@QEAA@AEBV012@@Z
??0FindAndModifyDocReply@server@mobile@@QEAA@XZ
??0FindAndModifyDocRequest@server@mobile@@QEAA@AEBV012@@Z
??0FindAndModifyDocRequest@server@mobile@@QEAA@XZ
??0FindDocReply@server@mobile@@QEAA@AEBV012@@Z
??0FindDocReply@server@mobile@@QEAA@XZ
??0FindDocRequest@server@mobile@@QEAA@AEBV012@@Z
??0FindDocRequest@server@mobile@@QEAA@XZ
??0ForwardMessageHeader@server@mobile@@QEAA@AEBV012@@Z
??0ForwardMessageHeader@server@mobile@@QEAA@XZ
??0GameLoad@server@mobile@@QEAA@AEBV012@@Z
??0GameLoad@server@mobile@@QEAA@XZ
??0GameServerInfos@server@mobile@@QEAA@AEBV012@@Z
??0GameServerInfos@server@mobile@@QEAA@XZ
??0Gate2GameReturnVal@server@mobile@@QEAA@AEBV012@@Z
??0Gate2GameReturnVal@server@mobile@@QEAA@XZ
??0GateInfo@server@mobile@@QEAA@AEBV012@@Z
??0GateInfo@server@mobile@@QEAA@XZ
??0GateMailbox@server@mobile@@QEAA@AEBV012@@Z
??0GateMailbox@server@mobile@@QEAA@XZ
??0GateMessage@server@mobile@@QEAA@AEBV012@@Z
??0GateMessage@server@mobile@@QEAA@XZ
??0GateReturnVal@server@mobile@@QEAA@AEBV012@@Z
??0GateReturnVal@server@mobile@@QEAA@XZ
??0GlobalData@server@mobile@@QEAA@AEBV012@@Z
??0GlobalData@server@mobile@@QEAA@XZ
??0GlobalEntityRegMsg@server@mobile@@QEAA@AEBV012@@Z
??0GlobalEntityRegMsg@server@mobile@@QEAA@XZ
??0GlobalMessage@server@mobile@@QEAA@AEBV012@@Z
??0GlobalMessage@server@mobile@@QEAA@XZ
??0GmReturnVal@server@mobile@@QEAA@AEBV012@@Z
??0GmReturnVal@server@mobile@@QEAA@XZ
??0IDbManager@server@mobile@@IEAA@XZ
??0IDbManagerClient@server@mobile@@IEAA@XZ
??0IDbManagerClient_Stub@server@mobile@@QEAA@PEAVRpcChannel@protobuf@google@@@Z
??0IDbManagerClient_Stub@server@mobile@@QEAA@PEAVRpcChannel@protobuf@google@@W4ChannelOwnership@Service@45@@Z
??0IDbManager_Stub@server@mobile@@QEAA@PEAVRpcChannel@protobuf@google@@@Z
??0IDbManager_Stub@server@mobile@@QEAA@PEAVRpcChannel@protobuf@google@@W4ChannelOwnership@Service@45@@Z
??0IGameClient@server@mobile@@IEAA@XZ
??0IGameClient_Stub@server@mobile@@QEAA@PEAVRpcChannel@protobuf@google@@@Z
??0IGameClient_Stub@server@mobile@@QEAA@PEAVRpcChannel@protobuf@google@@W4ChannelOwnership@Service@45@@Z
??0IGameManager@server@mobile@@IEAA@XZ
??0IGameManagerClient@server@mobile@@IEAA@XZ
??0IGameManagerClient_Stub@server@mobile@@QEAA@PEAVRpcChannel@protobuf@google@@@Z
??0IGameManagerClient_Stub@server@mobile@@QEAA@PEAVRpcChannel@protobuf@google@@W4ChannelOwnership@Service@45@@Z
??0IGameManager_Stub@server@mobile@@QEAA@PEAVRpcChannel@protobuf@google@@@Z
??0IGameManager_Stub@server@mobile@@QEAA@PEAVRpcChannel@protobuf@google@@W4ChannelOwnership@Service@45@@Z
??0IGameService@server@mobile@@IEAA@XZ
??0IGameService_Stub@server@mobile@@QEAA@PEAVRpcChannel@protobuf@google@@@Z
??0IGameService_Stub@server@mobile@@QEAA@PEAVRpcChannel@protobuf@google@@W4ChannelOwnership@Service@45@@Z
??0IGateClient@server@mobile@@IEAA@XZ
??0IGateClient_Stub@server@mobile@@QEAA@PEAVRpcChannel@protobuf@google@@@Z
??0IGateClient_Stub@server@mobile@@QEAA@PEAVRpcChannel@protobuf@google@@W4ChannelOwnership@Service@45@@Z
??0IGateService@server@mobile@@IEAA@XZ
??0IGateService_Stub@server@mobile@@QEAA@PEAVRpcChannel@protobuf@google@@@Z
??0IGateService_Stub@server@mobile@@QEAA@PEAVRpcChannel@protobuf@google@@W4ChannelOwnership@Service@45@@Z
??0InsertDocReply@server@mobile@@QEAA@AEBV012@@Z
??0InsertDocReply@server@mobile@@QEAA@XZ
??0InsertDocRequest@server@mobile@@QEAA@AEBV012@@Z
??0InsertDocRequest@server@mobile@@QEAA@XZ
??0LocalIdMessage@server@mobile@@QEAA@AEBV012@@Z
??0LocalIdMessage@server@mobile@@QEAA@XZ
??0MessageIp@server@mobile@@QEAA@AEBV012@@Z
??0MessageIp@server@mobile@@QEAA@XZ
??0OperIndexReply@server@mobile@@QEAA@AEBV012@@Z
??0OperIndexReply@server@mobile@@QEAA@XZ
??0OperIndexRequest@server@mobile@@QEAA@AEBV012@@Z
??0OperIndexRequest@server@mobile@@QEAA@XZ
??0ReadBytesMem@AK@@QEAA@PEBXJ@Z
??0ReadBytesMem@AK@@QEAA@XZ
??0ReadBytesSkip@AK@@QEAA@PEBXJ@Z
??0ReadBytesSkip@AK@@QEAA@XZ
??0RealEntityCreateInfo@server@mobile@@QEAA@AEBV012@@Z
??0RealEntityCreateInfo@server@mobile@@QEAA@XZ
??0RedisExecRequest@server@mobile@@QEAA@AEBV012@@Z
??0RedisExecRequest@server@mobile@@QEAA@XZ
??0RedisExecResponse@server@mobile@@QEAA@AEBV012@@Z
??0RedisExecResponse@server@mobile@@QEAA@XZ
??0RedisMultiExecRequest@server@mobile@@QEAA@AEBV012@@Z
??0RedisMultiExecRequest@server@mobile@@QEAA@XZ
??0RedisMultiExecResponse@server@mobile@@QEAA@AEBV012@@Z
??0RedisMultiExecResponse@server@mobile@@QEAA@XZ
??0RedisPiplineExecRequest@server@mobile@@QEAA@AEBV012@@Z
??0RedisPiplineExecRequest@server@mobile@@QEAA@XZ
??0RedisPiplineExecResponse@server@mobile@@QEAA@AEBV012@@Z
??0RedisPiplineExecResponse@server@mobile@@QEAA@XZ
??0RedisStatusMessage@server@mobile@@QEAA@AEBV012@@Z
??0RedisStatusMessage@server@mobile@@QEAA@XZ
??0RegistMd5IndexMsg@server@mobile@@QEAA@AEBV012@@Z
??0RegistMd5IndexMsg@server@mobile@@QEAA@XZ
??0RunProcedureReply@server@mobile@@QEAA@AEBV012@@Z
??0RunProcedureReply@server@mobile@@QEAA@XZ
??0RunProcedureRequest@server@mobile@@QEAA@AEBV012@@Z
??0RunProcedureRequest@server@mobile@@QEAA@XZ
??0Script@server@mobile@@QEAA@AEBV012@@Z
??0Script@server@mobile@@QEAA@XZ
??0ServerMethod@server@mobile@@QEAA@AEBV012@@Z
??0ServerMethod@server@mobile@@QEAA@XZ
??0ServiceInfos@server@mobile@@QEAA@AEBV012@@Z
??0ServiceInfos@server@mobile@@QEAA@XZ
??0SessionIsp@server@mobile@@QEAA@AEBV012@@Z
??0SessionIsp@server@mobile@@QEAA@XZ
??0SessionKey@server@mobile@@QEAA@AEBV012@@Z
??0SessionKey@server@mobile@@QEAA@XZ
??0SessionSeed@server@mobile@@QEAA@AEBV012@@Z
??0SessionSeed@server@mobile@@QEAA@XZ
??0SoulBindMsg@server@mobile@@QEAA@AEBV012@@Z
??0SoulBindMsg@server@mobile@@QEAA@XZ
??0SoulUnbindMsg@server@mobile@@QEAA@AEBV012@@Z
??0SoulUnbindMsg@server@mobile@@QEAA@XZ
??0UpdateDocReply@server@mobile@@QEAA@AEBV012@@Z
??0UpdateDocReply@server@mobile@@QEAA@XZ
??0UpdateDocRequest@server@mobile@@QEAA@AEBV012@@Z
??0UpdateDocRequest@server@mobile@@QEAA@XZ
??0WriteBytesCount@AK@@QEAA@XZ
??0WriteBytesMem@AK@@QEAA@XZ
??0iservice@async@@QEAA@AEBV01@@Z
??0iservice@async@@QEAA@XZ
??0iservice_factory@async@@QEAA@XZ
??0service@async@@QEAA@XZ
??0service_factory@async@@QEAA@XZ
??0service_manager@async@@AEAA@XZ
??1ActiveCompress@server@mobile@@UEAA@XZ
??1CAkEmitter@@UEAA@XZ
??1CAkGameObject@@UEAA@XZ
??1CAkRegisteredObj@@UEAA@XZ
??1CallDBRequest@server@mobile@@UEAA@XZ
??1CallDBResponse@server@mobile@@UEAA@XZ
??1CallbackId@server@mobile@@UEAA@XZ
??1ClientBindMsg@server@mobile@@UEAA@XZ
??1ClientInfo@server@mobile@@UEAA@XZ
??1CountDocReply@server@mobile@@UEAA@XZ
??1CountDocRequest@server@mobile@@UEAA@XZ
??1CreateCollectionReply@server@mobile@@UEAA@XZ
??1CreateCollectionRequest@server@mobile@@UEAA@XZ
??1CtrlType@server@mobile@@UEAA@XZ
??1CustomServiceInfo@server@mobile@@UEAA@XZ
??1CustomServiceMsg@server@mobile@@UEAA@XZ
??1DbServerInfo@server@mobile@@UEAA@XZ
??1DbStatusMessage@server@mobile@@UEAA@XZ
??1DeleteDocReply@server@mobile@@UEAA@XZ
??1DeleteDocRequest@server@mobile@@UEAA@XZ
??1EncryptString@server@mobile@@UEAA@XZ
??1EntityInfoHeader@server@mobile@@UEAA@XZ
??1ExtGroupTaskManager@Blast@Nv@@MEAA@XZ
??1FilterDataObj@server@mobile@@UEAA@XZ
??1FilterUserDatas@server@mobile@@UEAA@XZ
??1FindAndModifyDocReply@server@mobile@@UEAA@XZ
??1FindAndModifyDocRequest@server@mobile@@UEAA@XZ
??1FindDocReply@server@mobile@@UEAA@XZ
??1FindDocRequest@server@mobile@@UEAA@XZ
??1ForwardMessageHeader@server@mobile@@UEAA@XZ
??1GameLoad@server@mobile@@UEAA@XZ
??1GameServerInfos@server@mobile@@UEAA@XZ
??1Gate2GameReturnVal@server@mobile@@UEAA@XZ
??1GateInfo@server@mobile@@UEAA@XZ
??1GateMailbox@server@mobile@@UEAA@XZ
??1GateMessage@server@mobile@@UEAA@XZ
??1GateReturnVal@server@mobile@@UEAA@XZ
??1GlobalData@server@mobile@@UEAA@XZ
??1GlobalEntityRegMsg@server@mobile@@UEAA@XZ
??1GlobalMessage@server@mobile@@UEAA@XZ
??1GmReturnVal@server@mobile@@UEAA@XZ
??1IDbManager@server@mobile@@UEAA@XZ
??1IDbManagerClient@server@mobile@@UEAA@XZ
??1IDbManagerClient_Stub@server@mobile@@UEAA@XZ
??1IDbManager_Stub@server@mobile@@UEAA@XZ
??1IGameClient@server@mobile@@UEAA@XZ
??1IGameClient_Stub@server@mobile@@UEAA@XZ
??1IGameManager@server@mobile@@UEAA@XZ
??1IGameManagerClient@server@mobile@@UEAA@XZ
??1IGameManagerClient_Stub@server@mobile@@UEAA@XZ
??1IGameManager_Stub@server@mobile@@UEAA@XZ
??1IGameService@server@mobile@@UEAA@XZ
??1IGameService_Stub@server@mobile@@UEAA@XZ
??1IGateClient@server@mobile@@UEAA@XZ
??1IGateClient_Stub@server@mobile@@UEAA@XZ
??1IGateService@server@mobile@@UEAA@XZ
??1IGateService_Stub@server@mobile@@UEAA@XZ
??1InsertDocReply@server@mobile@@UEAA@XZ
??1InsertDocRequest@server@mobile@@UEAA@XZ
??1LocalIdMessage@server@mobile@@UEAA@XZ
??1MessageIp@server@mobile@@UEAA@XZ
??1OperIndexReply@server@mobile@@UEAA@XZ
??1OperIndexRequest@server@mobile@@UEAA@XZ
??1ReadBytesMem@AK@@UEAA@XZ
??1ReadBytesSkip@AK@@UEAA@XZ
??1RealEntityCreateInfo@server@mobile@@UEAA@XZ
??1RedisExecRequest@server@mobile@@UEAA@XZ
??1RedisExecResponse@server@mobile@@UEAA@XZ
??1RedisMultiExecRequest@server@mobile@@UEAA@XZ
??1RedisMultiExecResponse@server@mobile@@UEAA@XZ
??1RedisPiplineExecRequest@server@mobile@@UEAA@XZ
??1RedisPiplineExecResponse@server@mobile@@UEAA@XZ
??1RedisStatusMessage@server@mobile@@UEAA@XZ
??1RegistMd5IndexMsg@server@mobile@@UEAA@XZ
??1RunProcedureReply@server@mobile@@UEAA@XZ
??1RunProcedureRequest@server@mobile@@UEAA@XZ
??1Script@server@mobile@@UEAA@XZ
??1ServerMethod@server@mobile@@UEAA@XZ
??1ServiceInfos@server@mobile@@UEAA@XZ
??1SessionIsp@server@mobile@@UEAA@XZ
??1SessionKey@server@mobile@@UEAA@XZ
??1SessionSeed@server@mobile@@UEAA@XZ
??1SoulBindMsg@server@mobile@@UEAA@XZ
??1SoulUnbindMsg@server@mobile@@UEAA@XZ
??1UpdateDocReply@server@mobile@@UEAA@XZ
??1UpdateDocRequest@server@mobile@@UEAA@XZ
??1WriteBytesCount@AK@@UEAA@XZ
??1WriteBytesMem@AK@@UEAA@XZ
??1iservice@async@@UEAA@XZ
??1iservice_factory@async@@UEAA@XZ
??1service@async@@UEAA@XZ
??1service_factory@async@@UEAA@XZ
??1service_manager@async@@EEAA@XZ
??4ActiveCompress@server@mobile@@QEAAAEAV012@AEBV012@@Z
??4CallDBRequest@server@mobile@@QEAAAEAV012@AEBV012@@Z
??4CallDBResponse@server@mobile@@QEAAAEAV012@AEBV012@@Z
??4CallbackId@server@mobile@@QEAAAEAV012@AEBV012@@Z
??4ClientBindMsg@server@mobile@@QEAAAEAV012@AEBV012@@Z
??4ClientInfo@server@mobile@@QEAAAEAV012@AEBV012@@Z
??4CountDocReply@server@mobile@@QEAAAEAV012@AEBV012@@Z
??4CountDocRequest@server@mobile@@QEAAAEAV012@AEBV012@@Z
??4CreateCollectionReply@server@mobile@@QEAAAEAV012@AEBV012@@Z
??4CreateCollectionRequest@server@mobile@@QEAAAEAV012@AEBV012@@Z
??4CtrlType@server@mobile@@QEAAAEAV012@AEBV012@@Z
??4CustomServiceInfo@server@mobile@@QEAAAEAV012@AEBV012@@Z
??4CustomServiceMsg@server@mobile@@QEAAAEAV012@AEBV012@@Z
??4DbServerInfo@server@mobile@@QEAAAEAV012@AEBV012@@Z
??4DbStatusMessage@server@mobile@@QEAAAEAV012@AEBV012@@Z
??4DeleteDocReply@server@mobile@@QEAAAEAV012@AEBV012@@Z
??4DeleteDocRequest@server@mobile@@QEAAAEAV012@AEBV012@@Z
??4EncryptString@server@mobile@@QEAAAEAV012@AEBV012@@Z
??4EntityInfoHeader@server@mobile@@QEAAAEAV012@AEBV012@@Z
??4ExtGroupTaskManager@Blast@Nv@@QEAAAEAV012@AEBV012@@Z
??4ExtImpactDamageManager@Blast@Nv@@QEAAAEAV012@$$QEAV012@@Z
??4ExtImpactDamageManager@Blast@Nv@@QEAAAEAV012@AEBV012@@Z
??4ExtPxManager@Blast@Nv@@QEAAAEAV012@$$QEAV012@@Z
??4ExtPxManager@Blast@Nv@@QEAAAEAV012@AEBV012@@Z
??4ExtPxStressSolver@Blast@Nv@@QEAAAEAV012@$$QEAV012@@Z
??4ExtPxStressSolver@Blast@Nv@@QEAAAEAV012@AEBV012@@Z
??4ExtStressSolver@Blast@Nv@@QEAAAEAV012@$$QEAV012@@Z
??4ExtStressSolver@Blast@Nv@@QEAAAEAV012@AEBV012@@Z
??4FilterDataObj@server@mobile@@QEAAAEAV012@AEBV012@@Z
??4FilterUserDatas@server@mobile@@QEAAAEAV012@AEBV012@@Z
??4FindAndModifyDocReply@server@mobile@@QEAAAEAV012@AEBV012@@Z
??4FindAndModifyDocRequest@server@mobile@@QEAAAEAV012@AEBV012@@Z
??4FindDocReply@server@mobile@@QEAAAEAV012@AEBV012@@Z
??4FindDocRequest@server@mobile@@QEAAAEAV012@AEBV012@@Z
??4ForwardMessageHeader@server@mobile@@QEAAAEAV012@AEBV012@@Z
??4GameLoad@server@mobile@@QEAAAEAV012@AEBV012@@Z
??4GameServerInfos@server@mobile@@QEAAAEAV012@AEBV012@@Z
??4Gate2GameReturnVal@server@mobile@@QEAAAEAV012@AEBV012@@Z
??4GateInfo@server@mobile@@QEAAAEAV012@AEBV012@@Z
??4GateMailbox@server@mobile@@QEAAAEAV012@AEBV012@@Z
??4GateMessage@server@mobile@@QEAAAEAV012@AEBV012@@Z
??4GateReturnVal@server@mobile@@QEAAAEAV012@AEBV012@@Z
??4GlobalData@server@mobile@@QEAAAEAV012@AEBV012@@Z
??4GlobalEntityRegMsg@server@mobile@@QEAAAEAV012@AEBV012@@Z
??4GlobalMessage@server@mobile@@QEAAAEAV012@AEBV012@@Z
??4GmReturnVal@server@mobile@@QEAAAEAV012@AEBV012@@Z
??4InsertDocReply@server@mobile@@QEAAAEAV012@AEBV012@@Z
??4InsertDocRequest@server@mobile@@QEAAAEAV012@AEBV012@@Z
??4LocalIdMessage@server@mobile@@QEAAAEAV012@AEBV012@@Z
??4MessageIp@server@mobile@@QEAAAEAV012@AEBV012@@Z
??4OperIndexReply@server@mobile@@QEAAAEAV012@AEBV012@@Z
??4OperIndexRequest@server@mobile@@QEAAAEAV012@AEBV012@@Z
??4RealEntityCreateInfo@server@mobile@@QEAAAEAV012@AEBV012@@Z
??4RedisExecRequest@server@mobile@@QEAAAEAV012@AEBV012@@Z
??4RedisExecResponse@server@mobile@@QEAAAEAV012@AEBV012@@Z
??4RedisMultiExecRequest@server@mobile@@QEAAAEAV012@AEBV012@@Z
??4RedisMultiExecResponse@server@mobile@@QEAAAEAV012@AEBV012@@Z
??4RedisPiplineExecRequest@server@mobile@@QEAAAEAV012@AEBV012@@Z
??4RedisPiplineExecResponse@server@mobile@@QEAAAEAV012@AEBV012@@Z
??4RedisStatusMessage@server@mobile@@QEAAAEAV012@AEBV012@@Z
??4RegistMd5IndexMsg@server@mobile@@QEAAAEAV012@AEBV012@@Z
??4RunProcedureReply@server@mobile@@QEAAAEAV012@AEBV012@@Z
??4RunProcedureRequest@server@mobile@@QEAAAEAV012@AEBV012@@Z
??4Script@server@mobile@@QEAAAEAV012@AEBV012@@Z
??4ServerMethod@server@mobile@@QEAAAEAV012@AEBV012@@Z
??4ServiceInfos@server@mobile@@QEAAAEAV012@AEBV012@@Z
??4SessionIsp@server@mobile@@QEAAAEAV012@AEBV012@@Z
??4SessionKey@server@mobile@@QEAAAEAV012@AEBV012@@Z
??4SessionSeed@server@mobile@@QEAAAEAV012@AEBV012@@Z
??4SoulBindMsg@server@mobile@@QEAAAEAV012@AEBV012@@Z
??4SoulUnbindMsg@server@mobile@@QEAAAEAV012@AEBV012@@Z
??4UpdateDocReply@server@mobile@@QEAAAEAV012@AEBV012@@Z
??4UpdateDocRequest@server@mobile@@QEAAAEAV012@AEBV012@@Z
??4iservice@async@@QEAAAEAV01@AEBV01@@Z
??_7ActiveCompress@server@mobile@@6B@
??_7CallDBRequest@server@mobile@@6B@
??_7CallDBResponse@server@mobile@@6B@
??_7CallbackId@server@mobile@@6B@
??_7ClientBindMsg@server@mobile@@6B@
??_7ClientInfo@server@mobile@@6B@
??_7CountDocReply@server@mobile@@6B@
??_7CountDocRequest@server@mobile@@6B@
??_7CreateCollectionReply@server@mobile@@6B@
??_7CreateCollectionRequest@server@mobile@@6B@
??_7CtrlType@server@mobile@@6B@
??_7CustomServiceInfo@server@mobile@@6B@
??_7CustomServiceMsg@server@mobile@@6B@
??_7DbServerInfo@server@mobile@@6B@
??_7DbStatusMessage@server@mobile@@6B@
??_7DeleteDocReply@server@mobile@@6B@
??_7DeleteDocRequest@server@mobile@@6B@
??_7EncryptString@server@mobile@@6B@
??_7EntityInfoHeader@server@mobile@@6B@
??_7ExtGroupTaskManager@Blast@Nv@@6B@
??_7ExtImpactDamageManager@Blast@Nv@@6B@
??_7ExtPxManager@Blast@Nv@@6B@
??_7ExtPxStressSolver@Blast@Nv@@6B@
??_7ExtStressSolver@Blast@Nv@@6B@
??_7FilterDataObj@server@mobile@@6B@
??_7FilterUserDatas@server@mobile@@6B@
??_7FindAndModifyDocReply@server@mobile@@6B@
??_7FindAndModifyDocRequest@server@mobile@@6B@
??_7FindDocReply@server@mobile@@6B@
??_7FindDocRequest@server@mobile@@6B@
??_7ForwardMessageHeader@server@mobile@@6B@
??_7GameLoad@server@mobile@@6B@
??_7GameServerInfos@server@mobile@@6B@
??_7Gate2GameReturnVal@server@mobile@@6B@
??_7GateInfo@server@mobile@@6B@
??_7GateMailbox@server@mobile@@6B@
??_7GateMessage@server@mobile@@6B@
??_7GateReturnVal@server@mobile@@6B@
??_7GlobalData@server@mobile@@6B@
??_7GlobalEntityRegMsg@server@mobile@@6B@
??_7GlobalMessage@server@mobile@@6B@
??_7GmReturnVal@server@mobile@@6B@
??_7IDbManager@server@mobile@@6B@
??_7IDbManagerClient@server@mobile@@6B@
??_7IDbManagerClient_Stub@server@mobile@@6B@
??_7IDbManager_Stub@server@mobile@@6B@
??_7IGameClient@server@mobile@@6B@
??_7IGameClient_Stub@server@mobile@@6B@
??_7IGameManager@server@mobile@@6B@
??_7IGameManagerClient@server@mobile@@6B@
??_7IGameManagerClient_Stub@server@mobile@@6B@
??_7IGameManager_Stub@server@mobile@@6B@
??_7IGameService@server@mobile@@6B@
??_7IGameService_Stub@server@mobile@@6B@
??_7IGateClient@server@mobile@@6B@
??_7IGateClient_Stub@server@mobile@@6B@
??_7IGateService@server@mobile@@6B@
??_7IGateService_Stub@server@mobile@@6B@
??_7InsertDocReply@server@mobile@@6B@
??_7InsertDocRequest@server@mobile@@6B@
??_7LocalIdMessage@server@mobile@@6B@
??_7MessageIp@server@mobile@@6B@
??_7OperIndexReply@server@mobile@@6B@
??_7OperIndexRequest@server@mobile@@6B@
??_7RealEntityCreateInfo@server@mobile@@6B@
??_7RedisExecRequest@server@mobile@@6B@
??_7RedisExecResponse@server@mobile@@6B@
??_7RedisMultiExecRequest@server@mobile@@6B@
??_7RedisMultiExecResponse@server@mobile@@6B@
??_7RedisPiplineExecRequest@server@mobile@@6B@
??_7RedisPiplineExecResponse@server@mobile@@6B@
??_7RedisStatusMessage@server@mobile@@6B@
??_7RegistMd5IndexMsg@server@mobile@@6B@
??_7RunProcedureReply@server@mobile@@6B@
??_7RunProcedureRequest@server@mobile@@6B@
??_7Script@server@mobile@@6B@
??_7ServerMethod@server@mobile@@6B@
??_7ServiceInfos@server@mobile@@6B@
??_7SessionIsp@server@mobile@@6B@
??_7SessionKey@server@mobile@@6B@
??_7SessionSeed@server@mobile@@6B@
??_7SoulBindMsg@server@mobile@@6B@
??_7SoulUnbindMsg@server@mobile@@6B@
??_7UpdateDocReply@server@mobile@@6B@
??_7UpdateDocRequest@server@mobile@@6B@
??_7iservice@async@@6B@
??_7iservice_factory@async@@6B@
??_7service@async@@6Bdestory_guard@1@@
??_7service@async@@6Biservice@1@@
??_7service_factory@async@@6B@
??_7service_manager@async@@6B@
?ALREADY_EXISTED@CreateCollectionReply@server@mobile@@2W4CreateCollectionReply_CrateCollectionStatus@23@B
?AddDefaultListener@SoundEngine@AK@@YA?AW4AKRESULT@@_K@Z
?AddLanguageChangeObserver@StreamMgr@AK@@YA?AW4AKRESULT@@P6AXQEB_WPEAX@Z1@Z
?AddListener@SoundEngine@AK@@YA?AW4AKRESULT@@_K0@Z
?AddOutput@SoundEngine@AK@@YA?AW4AKRESULT@@AEBUAkOutputSettings@@PEA_KPEB_KK@Z
?AddOutputCaptureMarker@SoundEngine@AK@@YA?AW4AKRESULT@@PEBD@Z
?AnyWhere@EntityInfoHeader@server@mobile@@2W4EntityInfoHeader_ServerType@23@B
?ApplyGain@AkMixer@@YAXPEAVAkAudioBuffer@@0UAkRamp@@_N@Z
?ApplyGainAndInterleave@AkMixer@@YAXPEAVAkAudioBuffer@@0UAkRamp@@_N@Z
?Attach@ReadBytesMem@AK@@QEAAXPEBXJ@Z
?Attach@ReadBytesSkip@AK@@QEAAXPEBXJ@Z
?BUSY@DbStatusMessage@server@mobile@@2W4DbStatusMessage_DbStatus@23@B
?BUSY@RedisStatusMessage@server@mobile@@2W4RedisStatusMessage_RedisStatus@23@B
?Break@DynamicSequence@SoundEngine@AK@@YA?AW4AKRESULT@@K@Z
?ByteSize@ActiveCompress@server@mobile@@UEBAHXZ
?ByteSize@CallDBRequest@server@mobile@@UEBAHXZ
?ByteSize@CallDBResponse@server@mobile@@UEBAHXZ
?ByteSize@CallbackId@server@mobile@@UEBAHXZ
?ByteSize@ClientBindMsg@server@mobile@@UEBAHXZ
?ByteSize@ClientInfo@server@mobile@@UEBAHXZ
?ByteSize@CountDocReply@server@mobile@@UEBAHXZ
?ByteSize@CountDocRequest@server@mobile@@UEBAHXZ
?ByteSize@CreateCollectionReply@server@mobile@@UEBAHXZ
?ByteSize@CreateCollectionRequest@server@mobile@@UEBAHXZ
?ByteSize@CtrlType@server@mobile@@UEBAHXZ
?ByteSize@CustomServiceInfo@server@mobile@@UEBAHXZ
?ByteSize@CustomServiceMsg@server@mobile@@UEBAHXZ
?ByteSize@DbServerInfo@server@mobile@@UEBAHXZ
?ByteSize@DbStatusMessage@server@mobile@@UEBAHXZ
?ByteSize@DeleteDocReply@server@mobile@@UEBAHXZ
?ByteSize@DeleteDocRequest@server@mobile@@UEBAHXZ
?ByteSize@EncryptString@server@mobile@@UEBAHXZ
?ByteSize@EntityInfoHeader@server@mobile@@UEBAHXZ
?ByteSize@FilterDataObj@server@mobile@@UEBAHXZ
?ByteSize@FilterUserDatas@server@mobile@@UEBAHXZ
?ByteSize@FindAndModifyDocReply@server@mobile@@UEBAHXZ
?ByteSize@FindAndModifyDocRequest@server@mobile@@UEBAHXZ
?ByteSize@FindDocReply@server@mobile@@UEBAHXZ
?ByteSize@FindDocRequest@server@mobile@@UEBAHXZ
?ByteSize@ForwardMessageHeader@server@mobile@@UEBAHXZ
?ByteSize@GameLoad@server@mobile@@UEBAHXZ
?ByteSize@GameServerInfos@server@mobile@@UEBAHXZ
?ByteSize@Gate2GameReturnVal@server@mobile@@UEBAHXZ
?ByteSize@GateInfo@server@mobile@@UEBAHXZ
?ByteSize@GateMailbox@server@mobile@@UEBAHXZ
?ByteSize@GateMessage@server@mobile@@UEBAHXZ
?ByteSize@GateReturnVal@server@mobile@@UEBAHXZ
?ByteSize@GlobalData@server@mobile@@UEBAHXZ
?ByteSize@GlobalEntityRegMsg@server@mobile@@UEBAHXZ
?ByteSize@GlobalMessage@server@mobile@@UEBAHXZ
?ByteSize@GmReturnVal@server@mobile@@UEBAHXZ
?ByteSize@InsertDocReply@server@mobile@@UEBAHXZ
?ByteSize@InsertDocRequest@server@mobile@@UEBAHXZ
?ByteSize@LocalIdMessage@server@mobile@@UEBAHXZ
?ByteSize@MessageIp@server@mobile@@UEBAHXZ
?ByteSize@OperIndexReply@server@mobile@@UEBAHXZ
?ByteSize@OperIndexRequest@server@mobile@@UEBAHXZ
?ByteSize@RealEntityCreateInfo@server@mobile@@UEBAHXZ
?ByteSize@RedisExecRequest@server@mobile@@UEBAHXZ
?ByteSize@RedisExecResponse@server@mobile@@UEBAHXZ
?ByteSize@RedisMultiExecRequest@server@mobile@@UEBAHXZ
?ByteSize@RedisMultiExecResponse@server@mobile@@UEBAHXZ
?ByteSize@RedisPiplineExecRequest@server@mobile@@UEBAHXZ
?ByteSize@RedisPiplineExecResponse@server@mobile@@UEBAHXZ
?ByteSize@RedisStatusMessage@server@mobile@@UEBAHXZ
?ByteSize@RegistMd5IndexMsg@server@mobile@@UEBAHXZ
?ByteSize@RunProcedureReply@server@mobile@@UEBAHXZ
?ByteSize@RunProcedureRequest@server@mobile@@UEBAHXZ
?ByteSize@Script@server@mobile@@UEBAHXZ
?ByteSize@ServerMethod@server@mobile@@UEBAHXZ
?ByteSize@ServiceInfos@server@mobile@@UEBAHXZ
?ByteSize@SessionIsp@server@mobile@@UEBAHXZ
?ByteSize@SessionKey@server@mobile@@UEBAHXZ
?ByteSize@SessionSeed@server@mobile@@UEBAHXZ
?ByteSize@SoulBindMsg@server@mobile@@UEBAHXZ
?ByteSize@SoulUnbindMsg@server@mobile@@UEBAHXZ
?ByteSize@UpdateDocReply@server@mobile@@UEBAHXZ
?ByteSize@UpdateDocRequest@server@mobile@@UEBAHXZ
?Bytes@WriteBytesCount@AK@@UEBAPEAEXZ
?Bytes@WriteBytesMem@AK@@UEBAPEAEXZ
?CLOSE_DB_MANAGER@CtrlType@server@mobile@@2W4CtrlType_CtrlOp@23@B
?CLOSE_GAME@CtrlType@server@mobile@@2W4CtrlType_CtrlOp@23@B
?CLOSE_GAME_MANAGER@CtrlType@server@mobile@@2W4CtrlType_CtrlOp@23@B
?CLOSE_GATE@CtrlType@server@mobile@@2W4CtrlType_CtrlOp@23@B
?CONNECTED@DbStatusMessage@server@mobile@@2W4DbStatusMessage_DbStatus@23@B
?CONNECTED@RedisStatusMessage@server@mobile@@2W4RedisStatusMessage_RedisStatus@23@B
?CONNECTION_FAILED@DbStatusMessage@server@mobile@@2W4DbStatusMessage_DbStatus@23@B
?CONNECTION_FAILED@RedisStatusMessage@server@mobile@@2W4RedisStatusMessage_RedisStatus@23@B
?CREATE_ENTITY@GmReturnVal@server@mobile@@2W4GmReturnVal_CallbackType@23@B
?CREATE_FAILED@CreateCollectionReply@server@mobile@@2W4CreateCollectionReply_CrateCollectionStatus@23@B
?CREATE_SUCC@CreateCollectionReply@server@mobile@@2W4CreateCollectionReply_CrateCollectionStatus@23@B
?CallMethod@IDbManager@server@mobile@@UEAAXPEBVMethodDescriptor@protobuf@google@@PEAVRpcController@56@PEBVMessage@56@PEAV856@PEAVClosure@56@@Z
?CallMethod@IDbManagerClient@server@mobile@@UEAAXPEBVMethodDescriptor@protobuf@google@@PEAVRpcController@56@PEBVMessage@56@PEAV856@PEAVClosure@56@@Z
?CallMethod@IGameClient@server@mobile@@UEAAXPEBVMethodDescriptor@protobuf@google@@PEAVRpcController@56@PEBVMessage@56@PEAV856@PEAVClosure@56@@Z
?CallMethod@IGameManager@server@mobile@@UEAAXPEBVMethodDescriptor@protobuf@google@@PEAVRpcController@56@PEBVMessage@56@PEAV856@PEAVClosure@56@@Z
?CallMethod@IGameManagerClient@server@mobile@@UEAAXPEBVMethodDescriptor@protobuf@google@@PEAVRpcController@56@PEBVMessage@56@PEAV856@PEAVClosure@56@@Z
?CallMethod@IGameService@server@mobile@@UEAAXPEBVMethodDescriptor@protobuf@google@@PEAVRpcController@56@PEBVMessage@56@PEAV856@PEAVClosure@56@@Z
?CallMethod@IGateClient@server@mobile@@UEAAXPEBVMethodDescriptor@protobuf@google@@PEAVRpcController@56@PEBVMessage@56@PEAV856@PEAVClosure@56@@Z
?CallMethod@IGateService@server@mobile@@UEAAXPEBVMethodDescriptor@protobuf@google@@PEAVRpcController@56@PEBVMessage@56@PEAV856@PEAVClosure@56@@Z
?CallbackType_ARRAYSIZE@Gate2GameReturnVal@server@mobile@@2HB
?CallbackType_ARRAYSIZE@GmReturnVal@server@mobile@@2HB
?CallbackType_IsValid@Gate2GameReturnVal@server@mobile@@SA_NH@Z
?CallbackType_IsValid@GmReturnVal@server@mobile@@SA_NH@Z
?CallbackType_MAX@Gate2GameReturnVal@server@mobile@@2W4Gate2GameReturnVal_CallbackType@23@B
?CallbackType_MAX@GmReturnVal@server@mobile@@2W4GmReturnVal_CallbackType@23@B
?CallbackType_MIN@Gate2GameReturnVal@server@mobile@@2W4Gate2GameReturnVal_CallbackType@23@B
?CallbackType_MIN@GmReturnVal@server@mobile@@2W4GmReturnVal_CallbackType@23@B
?CallbackType_Name@Gate2GameReturnVal@server@mobile@@SAAEBV?$basic_string@DU?$char_traits@D@std@@V?$allocator@D@2@@std@@W4Gate2GameReturnVal_CallbackType@23@@Z
?CallbackType_Name@GmReturnVal@server@mobile@@SAAEBV?$basic_string@DU?$char_traits@D@std@@V?$allocator@D@2@@std@@W4GmReturnVal_CallbackType@23@@Z
?CallbackType_Parse@Gate2GameReturnVal@server@mobile@@SA_NAEBV?$basic_string@DU?$char_traits@D@std@@V?$allocator@D@2@@std@@PEAW4Gate2GameReturnVal_CallbackType@23@@Z
?CallbackType_Parse@GmReturnVal@server@mobile@@SA_NAEBV?$basic_string@DU?$char_traits@D@std@@V?$allocator@D@2@@std@@PEAW4GmReturnVal_CallbackType@23@@Z
?CallbackType_descriptor@Gate2GameReturnVal@server@mobile@@SAPEBVEnumDescriptor@protobuf@google@@XZ
?CallbackType_descriptor@GmReturnVal@server@mobile@@SAPEBVEnumDescriptor@protobuf@google@@XZ
?CancelBankCallbackCookie@SoundEngine@AK@@YAXPEAX@Z
?CancelEventCallback@SoundEngine@AK@@YAXK@Z
?CancelEventCallbackCookie@SoundEngine@AK@@YAXPEAX@Z
?CancelEventCallbackGameObject@SoundEngine@AK@@YAX_K@Z
?Clear@ActiveCompress@server@mobile@@UEAAXXZ
?Clear@CallDBRequest@server@mobile@@UEAAXXZ
?Clear@CallDBResponse@server@mobile@@UEAAXXZ
?Clear@CallbackId@server@mobile@@UEAAXXZ
?Clear@ClientBindMsg@server@mobile@@UEAAXXZ
?Clear@ClientInfo@server@mobile@@UEAAXXZ
?Clear@CountDocReply@server@mobile@@UEAAXXZ
?Clear@CountDocRequest@server@mobile@@UEAAXXZ
?Clear@CreateCollectionReply@server@mobile@@UEAAXXZ
?Clear@CreateCollectionRequest@server@mobile@@UEAAXXZ
?Clear@CtrlType@server@mobile@@UEAAXXZ
?Clear@CustomServiceInfo@server@mobile@@UEAAXXZ
?Clear@CustomServiceMsg@server@mobile@@UEAAXXZ
?Clear@DbServerInfo@server@mobile@@UEAAXXZ
?Clear@DbStatusMessage@server@mobile@@UEAAXXZ
?Clear@DeleteDocReply@server@mobile@@UEAAXXZ
?Clear@DeleteDocRequest@server@mobile@@UEAAXXZ
?Clear@EncryptString@server@mobile@@UEAAXXZ
?Clear@EntityInfoHeader@server@mobile@@UEAAXXZ
?Clear@FilterDataObj@server@mobile@@UEAAXXZ
?Clear@FilterUserDatas@server@mobile@@UEAAXXZ
?Clear@FindAndModifyDocReply@server@mobile@@UEAAXXZ
?Clear@FindAndModifyDocRequest@server@mobile@@UEAAXXZ
?Clear@FindDocReply@server@mobile@@UEAAXXZ
?Clear@FindDocRequest@server@mobile@@UEAAXXZ
?Clear@ForwardMessageHeader@server@mobile@@UEAAXXZ
?Clear@GameLoad@server@mobile@@UEAAXXZ
?Clear@GameServerInfos@server@mobile@@UEAAXXZ
?Clear@Gate2GameReturnVal@server@mobile@@UEAAXXZ
?Clear@GateInfo@server@mobile@@UEAAXXZ
?Clear@GateMailbox@server@mobile@@UEAAXXZ
?Clear@GateMessage@server@mobile@@UEAAXXZ
?Clear@GateReturnVal@server@mobile@@UEAAXXZ
?Clear@GlobalData@server@mobile@@UEAAXXZ
?Clear@GlobalEntityRegMsg@server@mobile@@UEAAXXZ
?Clear@GlobalMessage@server@mobile@@UEAAXXZ
?Clear@GmReturnVal@server@mobile@@UEAAXXZ
?Clear@InsertDocReply@server@mobile@@UEAAXXZ
?Clear@InsertDocRequest@server@mobile@@UEAAXXZ
?Clear@LocalIdMessage@server@mobile@@UEAAXXZ
?Clear@MessageIp@server@mobile@@UEAAXXZ
?Clear@OperIndexReply@server@mobile@@UEAAXXZ
?Clear@OperIndexRequest@server@mobile@@UEAAXXZ
?Clear@RealEntityCreateInfo@server@mobile@@UEAAXXZ
?Clear@RedisExecRequest@server@mobile@@UEAAXXZ
?Clear@RedisExecResponse@server@mobile@@UEAAXXZ
?Clear@RedisMultiExecRequest@server@mobile@@UEAAXXZ
?Clear@RedisMultiExecResponse@server@mobile@@UEAAXXZ
?Clear@RedisPiplineExecRequest@server@mobile@@UEAAXXZ
?Clear@RedisPiplineExecResponse@server@mobile@@UEAAXXZ
?Clear@RedisStatusMessage@server@mobile@@UEAAXXZ
?Clear@RegistMd5IndexMsg@server@mobile@@UEAAXXZ
?Clear@RunProcedureReply@server@mobile@@UEAAXXZ
?Clear@RunProcedureRequest@server@mobile@@UEAAXXZ
?Clear@Script@server@mobile@@UEAAXXZ
?Clear@ServerMethod@server@mobile@@UEAAXXZ
?Clear@ServiceInfos@server@mobile@@UEAAXXZ
?Clear@SessionIsp@server@mobile@@UEAAXXZ
?Clear@SessionKey@server@mobile@@UEAAXXZ
?Clear@SessionSeed@server@mobile@@UEAAXXZ
?Clear@SoulBindMsg@server@mobile@@UEAAXXZ
?Clear@SoulUnbindMsg@server@mobile@@UEAAXXZ
?Clear@UpdateDocReply@server@mobile@@UEAAXXZ
?Clear@UpdateDocRequest@server@mobile@@UEAAXXZ
?Clear@WriteBytesCount@AK@@UEAAXXZ
?Clear@WriteBytesMem@AK@@UEAAXXZ
?ClearBanks@SoundEngine@AK@@YA?AW4AKRESULT@@XZ
?ClearImageSources@SpatialAudio@AK@@YA?AW4AKRESULT@@K_K@Z
?ClearPreparedEvents@SoundEngine@AK@@YA?AW4AKRESULT@@XZ
?Close@DynamicSequence@SoundEngine@AK@@YA?AW4AKRESULT@@K@Z
?CopyFrom@ActiveCompress@server@mobile@@QEAAXAEBV123@@Z
?CopyFrom@ActiveCompress@server@mobile@@UEAAXAEBVMessage@protobuf@google@@@Z
?CopyFrom@CallDBRequest@server@mobile@@QEAAXAEBV123@@Z
?CopyFrom@CallDBRequest@server@mobile@@UEAAXAEBVMessage@protobuf@google@@@Z
?CopyFrom@CallDBResponse@server@mobile@@QEAAXAEBV123@@Z
?CopyFrom@CallDBResponse@server@mobile@@UEAAXAEBVMessage@protobuf@google@@@Z
?CopyFrom@CallbackId@server@mobile@@QEAAXAEBV123@@Z
?CopyFrom@CallbackId@server@mobile@@UEAAXAEBVMessage@protobuf@google@@@Z
?CopyFrom@ClientBindMsg@server@mobile@@QEAAXAEBV123@@Z
?CopyFrom@ClientBindMsg@server@mobile@@UEAAXAEBVMessage@protobuf@google@@@Z
?CopyFrom@ClientInfo@server@mobile@@QEAAXAEBV123@@Z
?CopyFrom@ClientInfo@server@mobile@@UEAAXAEBVMessage@protobuf@google@@@Z
?CopyFrom@CountDocReply@server@mobile@@QEAAXAEBV123@@Z
?CopyFrom@CountDocReply@server@mobile@@UEAAXAEBVMessage@protobuf@google@@@Z
?CopyFrom@CountDocRequest@server@mobile@@QEAAXAEBV123@@Z
?CopyFrom@CountDocRequest@server@mobile@@UEAAXAEBVMessage@protobuf@google@@@Z
?CopyFrom@CreateCollectionReply@server@mobile@@QEAAXAEBV123@@Z
?CopyFrom@CreateCollectionReply@server@mobile@@UEAAXAEBVMessage@protobuf@google@@@Z
?CopyFrom@CreateCollectionRequest@server@mobile@@QEAAXAEBV123@@Z
?CopyFrom@CreateCollectionRequest@server@mobile@@UEAAXAEBVMessage@protobuf@google@@@Z
?CopyFrom@CtrlType@server@mobile@@QEAAXAEBV123@@Z
?CopyFrom@CtrlType@server@mobile@@UEAAXAEBVMessage@protobuf@google@@@Z
?CopyFrom@CustomServiceInfo@server@mobile@@QEAAXAEBV123@@Z
?CopyFrom@CustomServiceInfo@server@mobile@@UEAAXAEBVMessage@protobuf@google@@@Z
?CopyFrom@CustomServiceMsg@server@mobile@@QEAAXAEBV123@@Z
?CopyFrom@CustomServiceMsg@server@mobile@@UEAAXAEBVMessage@protobuf@google@@@Z
?CopyFrom@DbServerInfo@server@mobile@@QEAAXAEBV123@@Z
?CopyFrom@DbServerInfo@server@mobile@@UEAAXAEBVMessage@protobuf@google@@@Z
?CopyFrom@DbStatusMessage@server@mobile@@QEAAXAEBV123@@Z
?CopyFrom@DbStatusMessage@server@mobile@@UEAAXAEBVMessage@protobuf@google@@@Z
?CopyFrom@DeleteDocReply@server@mobile@@QEAAXAEBV123@@Z
?CopyFrom@DeleteDocReply@server@mobile@@UEAAXAEBVMessage@protobuf@google@@@Z
?CopyFrom@DeleteDocRequest@server@mobile@@QEAAXAEBV123@@Z
?CopyFrom@DeleteDocRequest@server@mobile@@UEAAXAEBVMessage@protobuf@google@@@Z
?CopyFrom@EncryptString@server@mobile@@QEAAXAEBV123@@Z
?CopyFrom@EncryptString@server@mobile@@UEAAXAEBVMessage@protobuf@google@@@Z
?CopyFrom@EntityInfoHeader@server@mobile@@QEAAXAEBV123@@Z
?CopyFrom@EntityInfoHeader@server@mobile@@UEAAXAEBVMessage@protobuf@google@@@Z
?CopyFrom@FilterDataObj@server@mobile@@QEAAXAEBV123@@Z
?CopyFrom@FilterDataObj@server@mobile@@UEAAXAEBVMessage@protobuf@google@@@Z
?CopyFrom@FilterUserDatas@server@mobile@@QEAAXAEBV123@@Z
?CopyFrom@FilterUserDatas@server@mobile@@UEAAXAEBVMessage@protobuf@google@@@Z
?CopyFrom@FindAndModifyDocReply@server@mobile@@QEAAXAEBV123@@Z
?CopyFrom@FindAndModifyDocReply@server@mobile@@UEAAXAEBVMessage@protobuf@google@@@Z
?CopyFrom@FindAndModifyDocRequest@server@mobile@@QEAAXAEBV123@@Z
?CopyFrom@FindAndModifyDocRequest@server@mobile@@UEAAXAEBVMessage@protobuf@google@@@Z
?CopyFrom@FindDocReply@server@mobile@@QEAAXAEBV123@@Z
?CopyFrom@FindDocReply@server@mobile@@UEAAXAEBVMessage@protobuf@google@@@Z
?CopyFrom@FindDocRequest@server@mobile@@QEAAXAEBV123@@Z
?CopyFrom@FindDocRequest@server@mobile@@UEAAXAEBVMessage@protobuf@google@@@Z
?CopyFrom@ForwardMessageHeader@server@mobile@@QEAAXAEBV123@@Z
?CopyFrom@ForwardMessageHeader@server@mobile@@UEAAXAEBVMessage@protobuf@google@@@Z
?CopyFrom@GameLoad@server@mobile@@QEAAXAEBV123@@Z
?CopyFrom@GameLoad@server@mobile@@UEAAXAEBVMessage@protobuf@google@@@Z
?CopyFrom@GameServerInfos@server@mobile@@QEAAXAEBV123@@Z
?CopyFrom@GameServerInfos@server@mobile@@UEAAXAEBVMessage@protobuf@google@@@Z
?CopyFrom@Gate2GameReturnVal@server@mobile@@QEAAXAEBV123@@Z
?CopyFrom@Gate2GameReturnVal@server@mobile@@UEAAXAEBVMessage@protobuf@google@@@Z
?CopyFrom@GateInfo@server@mobile@@QEAAXAEBV123@@Z
?CopyFrom@GateInfo@server@mobile@@UEAAXAEBVMessage@protobuf@google@@@Z
?CopyFrom@GateMailbox@server@mobile@@QEAAXAEBV123@@Z
?CopyFrom@GateMailbox@server@mobile@@UEAAXAEBVMessage@protobuf@google@@@Z
?CopyFrom@GateMessage@server@mobile@@QEAAXAEBV123@@Z
?CopyFrom@GateMessage@server@mobile@@UEAAXAEBVMessage@protobuf@google@@@Z
?CopyFrom@GateReturnVal@server@mobile@@QEAAXAEBV123@@Z
?CopyFrom@GateReturnVal@server@mobile@@UEAAXAEBVMessage@protobuf@google@@@Z
?CopyFrom@GlobalData@server@mobile@@QEAAXAEBV123@@Z
?CopyFrom@GlobalData@server@mobile@@UEAAXAEBVMessage@protobuf@google@@@Z
?CopyFrom@GlobalEntityRegMsg@server@mobile@@QEAAXAEBV123@@Z
?CopyFrom@GlobalEntityRegMsg@server@mobile@@UEAAXAEBVMessage@protobuf@google@@@Z
?CopyFrom@GlobalMessage@server@mobile@@QEAAXAEBV123@@Z
?CopyFrom@GlobalMessage@server@mobile@@UEAAXAEBVMessage@protobuf@google@@@Z
?CopyFrom@GmReturnVal@server@mobile@@QEAAXAEBV123@@Z
?CopyFrom@GmReturnVal@server@mobile@@UEAAXAEBVMessage@protobuf@google@@@Z
?CopyFrom@InsertDocReply@server@mobile@@QEAAXAEBV123@@Z
?CopyFrom@InsertDocReply@server@mobile@@UEAAXAEBVMessage@protobuf@google@@@Z
?CopyFrom@InsertDocRequest@server@mobile@@QEAAXAEBV123@@Z
?CopyFrom@InsertDocRequest@server@mobile@@UEAAXAEBVMessage@protobuf@google@@@Z
?CopyFrom@LocalIdMessage@server@mobile@@QEAAXAEBV123@@Z
?CopyFrom@LocalIdMessage@server@mobile@@UEAAXAEBVMessage@protobuf@google@@@Z
?CopyFrom@MessageIp@server@mobile@@QEAAXAEBV123@@Z
?CopyFrom@MessageIp@server@mobile@@UEAAXAEBVMessage@protobuf@google@@@Z
?CopyFrom@OperIndexReply@server@mobile@@QEAAXAEBV123@@Z
?CopyFrom@OperIndexReply@server@mobile@@UEAAXAEBVMessage@protobuf@google@@@Z
?CopyFrom@OperIndexRequest@server@mobile@@QEAAXAEBV123@@Z
?CopyFrom@OperIndexRequest@server@mobile@@UEAAXAEBVMessage@protobuf@google@@@Z
?CopyFrom@RealEntityCreateInfo@server@mobile@@QEAAXAEBV123@@Z
?CopyFrom@RealEntityCreateInfo@server@mobile@@UEAAXAEBVMessage@protobuf@google@@@Z
?CopyFrom@RedisExecRequest@server@mobile@@QEAAXAEBV123@@Z
?CopyFrom@RedisExecRequest@server@mobile@@UEAAXAEBVMessage@protobuf@google@@@Z
?CopyFrom@RedisExecResponse@server@mobile@@QEAAXAEBV123@@Z
?CopyFrom@RedisExecResponse@server@mobile@@UEAAXAEBVMessage@protobuf@google@@@Z
?CopyFrom@RedisMultiExecRequest@server@mobile@@QEAAXAEBV123@@Z
?CopyFrom@RedisMultiExecRequest@server@mobile@@UEAAXAEBVMessage@protobuf@google@@@Z
?CopyFrom@RedisMultiExecResponse@server@mobile@@QEAAXAEBV123@@Z
?CopyFrom@RedisMultiExecResponse@server@mobile@@UEAAXAEBVMessage@protobuf@google@@@Z
?CopyFrom@RedisPiplineExecRequest@server@mobile@@QEAAXAEBV123@@Z
?CopyFrom@RedisPiplineExecRequest@server@mobile@@UEAAXAEBVMessage@protobuf@google@@@Z
?CopyFrom@RedisPiplineExecResponse@server@mobile@@QEAAXAEBV123@@Z
?CopyFrom@RedisPiplineExecResponse@server@mobile@@UEAAXAEBVMessage@protobuf@google@@@Z
?CopyFrom@RedisStatusMessage@server@mobile@@QEAAXAEBV123@@Z
?CopyFrom@RedisStatusMessage@server@mobile@@UEAAXAEBVMessage@protobuf@google@@@Z
?CopyFrom@RegistMd5IndexMsg@server@mobile@@QEAAXAEBV123@@Z
?CopyFrom@RegistMd5IndexMsg@server@mobile@@UEAAXAEBVMessage@protobuf@google@@@Z
?CopyFrom@RunProcedureReply@server@mobile@@QEAAXAEBV123@@Z
?CopyFrom@RunProcedureReply@server@mobile@@UEAAXAEBVMessage@protobuf@google@@@Z
?CopyFrom@RunProcedureRequest@server@mobile@@QEAAXAEBV123@@Z
?CopyFrom@RunProcedureRequest@server@mobile@@UEAAXAEBVMessage@protobuf@google@@@Z
?CopyFrom@Script@server@mobile@@QEAAXAEBV123@@Z
?CopyFrom@Script@server@mobile@@UEAAXAEBVMessage@protobuf@google@@@Z
?CopyFrom@ServerMethod@server@mobile@@QEAAXAEBV123@@Z
?CopyFrom@ServerMethod@server@mobile@@UEAAXAEBVMessage@protobuf@google@@@Z
?CopyFrom@ServiceInfos@server@mobile@@QEAAXAEBV123@@Z
?CopyFrom@ServiceInfos@server@mobile@@UEAAXAEBVMessage@protobuf@google@@@Z
?CopyFrom@SessionIsp@server@mobile@@QEAAXAEBV123@@Z
?CopyFrom@SessionIsp@server@mobile@@UEAAXAEBVMessage@protobuf@google@@@Z
?CopyFrom@SessionKey@server@mobile@@QEAAXAEBV123@@Z
?CopyFrom@SessionKey@server@mobile@@UEAAXAEBVMessage@protobuf@google@@@Z
?CopyFrom@SessionSeed@server@mobile@@QEAAXAEBV123@@Z
?CopyFrom@SessionSeed@server@mobile@@UEAAXAEBVMessage@protobuf@google@@@Z
?CopyFrom@SoulBindMsg@server@mobile@@QEAAXAEBV123@@Z
?CopyFrom@SoulBindMsg@server@mobile@@UEAAXAEBVMessage@protobuf@google@@@Z
?CopyFrom@SoulUnbindMsg@server@mobile@@QEAAXAEBV123@@Z
?CopyFrom@SoulUnbindMsg@server@mobile@@UEAAXAEBVMessage@protobuf@google@@@Z
?CopyFrom@UpdateDocReply@server@mobile@@QEAAXAEBV123@@Z
?CopyFrom@UpdateDocReply@server@mobile@@UEAAXAEBVMessage@protobuf@google@@@Z
?CopyFrom@UpdateDocRequest@server@mobile@@QEAAXAEBV123@@Z
?CopyFrom@UpdateDocRequest@server@mobile@@UEAAXAEBVMessage@protobuf@google@@@Z
?Count@ReadBytesSkip@AK@@QEAAJXZ
?Count@WriteBytesCount@AK@@UEBAJXZ
?Count@WriteBytesMem@AK@@UEBAJXZ
?CrateCollectionStatus_ARRAYSIZE@CreateCollectionReply@server@mobile@@2HB
?CrateCollectionStatus_IsValid@CreateCollectionReply@server@mobile@@SA_NH@Z
?CrateCollectionStatus_MAX@CreateCollectionReply@server@mobile@@2W4CreateCollectionReply_CrateCollectionStatus@23@B
?CrateCollectionStatus_MIN@CreateCollectionReply@server@mobile@@2W4CreateCollectionReply_CrateCollectionStatus@23@B
?CrateCollectionStatus_Name@CreateCollectionReply@server@mobile@@SAAEBV?$basic_string@DU?$char_traits@D@std@@V?$allocator@D@2@@std@@W4CreateCollectionReply_CrateCollectionStatus@23@@Z
?CrateCollectionStatus_Parse@CreateCollectionReply@server@mobile@@SA_NAEBV?$basic_string@DU?$char_traits@D@std@@V?$allocator@D@2@@std@@PEAW4CreateCollectionReply_CrateCollectionStatus@23@@Z
?CrateCollectionStatus_descriptor@CreateCollectionReply@server@mobile@@SAPEBVEnumDescriptor@protobuf@google@@XZ
?Create@StreamMgr@AK@@YAPEAVIAkStreamMgr@2@AEBUAkStreamMgrSettings@@@Z
?CreateCollectionReply_CrateCollectionStatus_IsValid@server@mobile@@YA_NH@Z
?CreateCollectionReply_CrateCollectionStatus_descriptor@server@mobile@@YAPEBVEnumDescriptor@protobuf@google@@XZ
?CreateDevice@StreamMgr@AK@@YAKAEBUAkDeviceSettings@@PEAVIAkLowLevelIOHook@12@@Z
?CtrlOp_ARRAYSIZE@CtrlType@server@mobile@@2HB
?CtrlOp_IsValid@CtrlType@server@mobile@@SA_NH@Z
?CtrlOp_MAX@CtrlType@server@mobile@@2W4CtrlType_CtrlOp@23@B
?CtrlOp_MIN@CtrlType@server@mobile@@2W4CtrlType_CtrlOp@23@B
?CtrlOp_Name@CtrlType@server@mobile@@SAAEBV?$basic_string@DU?$char_traits@D@std@@V?$allocator@D@2@@std@@W4CtrlType_CtrlOp@23@@Z
?CtrlOp_Parse@CtrlType@server@mobile@@SA_NAEBV?$basic_string@DU?$char_traits@D@std@@V?$allocator@D@2@@std@@PEAW4CtrlType_CtrlOp@23@@Z
?CtrlOp_descriptor@CtrlType@server@mobile@@SAPEBVEnumDescriptor@protobuf@google@@XZ
?CtrlType_CtrlOp_IsValid@server@mobile@@YA_NH@Z
?CtrlType_CtrlOp_descriptor@server@mobile@@YAPEBVEnumDescriptor@protobuf@google@@XZ
?DISCONNECT_ALL_CONNECTION@CtrlType@server@mobile@@2W4CtrlType_CtrlOp@23@B
?DROP@OperIndexRequest@server@mobile@@2W4OperIndexRequest_OperType@23@B
?DbStatusMessage_DbStatus_IsValid@server@mobile@@YA_NH@Z
?DbStatusMessage_DbStatus_descriptor@server@mobile@@YAPEBVEnumDescriptor@protobuf@google@@XZ
?DbStatus_ARRAYSIZE@DbStatusMessage@server@mobile@@2HB
?DbStatus_IsValid@DbStatusMessage@server@mobile@@SA_NH@Z
?DbStatus_MAX@DbStatusMessage@server@mobile@@2W4DbStatusMessage_DbStatus@23@B
?DbStatus_MIN@DbStatusMessage@server@mobile@@2W4DbStatusMessage_DbStatus@23@B
?DbStatus_Name@DbStatusMessage@server@mobile@@SAAEBV?$basic_string@DU?$char_traits@D@std@@V?$allocator@D@2@@std@@W4DbStatusMessage_DbStatus@23@@Z
?DbStatus_Parse@DbStatusMessage@server@mobile@@SA_NAEBV?$basic_string@DU?$char_traits@D@std@@V?$allocator@D@2@@std@@PEAW4DbStatusMessage_DbStatus@23@@Z
?DbStatus_descriptor@DbStatusMessage@server@mobile@@SAPEBVEnumDescriptor@protobuf@google@@XZ
?DecodeBank@SoundEngine@AK@@YA?AW4AKRESULT@@PEBXKJAEAPEAXAEAK@Z
?DestroyDevice@StreamMgr@AK@@YA?AW4AKRESULT@@K@Z
?Detach@WriteBytesCount@AK@@UEAAPEAEXZ
?Detach@WriteBytesMem@AK@@UEAAPEAEXZ
?ENSURE@OperIndexRequest@server@mobile@@2W4OperIndexRequest_OperType@23@B
?EncodeVector@CAkSpeakerPan@@SAXHPEAM0@Z
?EntityInfoHeader_ServerType_IsValid@server@mobile@@YA_NH@Z
?EntityInfoHeader_ServerType_descriptor@server@mobile@@YAPEBVEnumDescriptor@protobuf@google@@XZ
?ExecuteActionOnEvent@SoundEngine@AK@@YA?AW4AKRESULT@@KW4AkActionOnEventType@12@_KJW4AkCurveInterpolation@@K@Z
?ExecuteActionOnEvent@SoundEngine@AK@@YA?AW4AKRESULT@@PEBDW4AkActionOnEventType@12@_KJW4AkCurveInterpolation@@K@Z
?ExecuteActionOnEvent@SoundEngine@AK@@YA?AW4AKRESULT@@PEB_WW4AkActionOnEventType@12@_KJW4AkCurveInterpolation@@K@Z
?ExecuteActionOnPlayingID@SoundEngine@AK@@YAXW4AkActionOnEventType@12@KJW4AkCurveInterpolation@@@Z
?FORBID_NEW_CONNECTION@CtrlType@server@mobile@@2W4CtrlType_CtrlOp@23@B
?FORWARD_ENTITY_MSG@GmReturnVal@server@mobile@@2W4GmReturnVal_CallbackType@23@B
?Falign@MemoryMgr@AK@@YAXJPEAX@Z
?FilterShader@ExtImpactDamageManager@Blast@Nv@@SA?AV?$PxFlags@W4Enum@PxFilterFlag@physx@@G@physx@@IUPxFilterData@5@I0AEAV?$PxFlags@W4Enum@PxPairFlag@physx@@G@5@PEBXI@Z
?FlushAllCaches@StreamMgr@AK@@YAXXZ
?Free@MemoryMgr@AK@@YAXJPEAX@Z
?GATE2GAME_ENTITY_MSG@Gate2GameReturnVal@server@mobile@@2W4Gate2GameReturnVal_CallbackType@23@B
?Gate2GameReturnVal_CallbackType_IsValid@server@mobile@@YA_NH@Z
?Gate2GameReturnVal_CallbackType_descriptor@server@mobile@@YAPEBVEnumDescriptor@protobuf@google@@XZ
?GetActiveGameObjects@Query@SoundEngine@AK@@YA?AW4AKRESULT@@AEAV?$AkArray@_K_KU?$AkArrayAllocatorNoAlign@$0A@@@UAkGrowByPolicy_Proportional@@U?$AkAssignmentMovePolicy@_K@@@@@Z
?GetAudioSettings@SoundEngine@AK@@YA?AW4AKRESULT@@AEAUAkAudioSettings@@@Z
?GetBackgroundMusicMute@SoundEngine@AK@@YA_NXZ
?GetBufferStatusForPinnedEvent@SoundEngine@AK@@YA?AW4AKRESULT@@KAEAMAEA_N@Z
?GetBufferStatusForPinnedEvent@SoundEngine@AK@@YA?AW4AKRESULT@@PEBDAEAMAEA_N@Z
?GetBufferStatusForPinnedEvent@SoundEngine@AK@@YA?AW4AKRESULT@@PEB_WAEAMAEA_N@Z
?GetBufferTick@SoundEngine@AK@@YAKXZ
?GetCachedSize@ActiveCompress@server@mobile@@UEBAHXZ
?GetCachedSize@CallDBRequest@server@mobile@@UEBAHXZ
?GetCachedSize@CallDBResponse@server@mobile@@UEBAHXZ
?GetCachedSize@CallbackId@server@mobile@@UEBAHXZ
?GetCachedSize@ClientBindMsg@server@mobile@@UEBAHXZ
?GetCachedSize@ClientInfo@server@mobile@@UEBAHXZ
?GetCachedSize@CountDocReply@server@mobile@@UEBAHXZ
?GetCachedSize@CountDocRequest@server@mobile@@UEBAHXZ
?GetCachedSize@CreateCollectionReply@server@mobile@@UEBAHXZ
?GetCachedSize@CreateCollectionRequest@server@mobile@@UEBAHXZ
?GetCachedSize@CtrlType@server@mobile@@UEBAHXZ
?GetCachedSize@CustomServiceInfo@server@mobile@@UEBAHXZ
?GetCachedSize@CustomServiceMsg@server@mobile@@UEBAHXZ
?GetCachedSize@DbServerInfo@server@mobile@@UEBAHXZ
?GetCachedSize@DbStatusMessage@server@mobile@@UEBAHXZ
?GetCachedSize@DeleteDocReply@server@mobile@@UEBAHXZ
?GetCachedSize@DeleteDocRequest@server@mobile@@UEBAHXZ
?GetCachedSize@EncryptString@server@mobile@@UEBAHXZ
?GetCachedSize@EntityInfoHeader@server@mobile@@UEBAHXZ
?GetCachedSize@FilterDataObj@server@mobile@@UEBAHXZ
?GetCachedSize@FilterUserDatas@server@mobile@@UEBAHXZ
?GetCachedSize@FindAndModifyDocReply@server@mobile@@UEBAHXZ
?GetCachedSize@FindAndModifyDocRequest@server@mobile@@UEBAHXZ
?GetCachedSize@FindDocReply@server@mobile@@UEBAHXZ
?GetCachedSize@FindDocRequest@server@mobile@@UEBAHXZ
?GetCachedSize@ForwardMessageHeader@server@mobile@@UEBAHXZ
?GetCachedSize@GameLoad@server@mobile@@UEBAHXZ
?GetCachedSize@GameServerInfos@server@mobile@@UEBAHXZ
?GetCachedSize@Gate2GameReturnVal@server@mobile@@UEBAHXZ
?GetCachedSize@GateInfo@server@mobile@@UEBAHXZ
?GetCachedSize@GateMailbox@server@mobile@@UEBAHXZ
?GetCachedSize@GateMessage@server@mobile@@UEBAHXZ
?GetCachedSize@GateReturnVal@server@mobile@@UEBAHXZ
?GetCachedSize@GlobalData@server@mobile@@UEBAHXZ
?GetCachedSize@GlobalEntityRegMsg@server@mobile@@UEBAHXZ
?GetCachedSize@GlobalMessage@server@mobile@@UEBAHXZ
?GetCachedSize@GmReturnVal@server@mobile@@UEBAHXZ
?GetCachedSize@InsertDocReply@server@mobile@@UEBAHXZ
?GetCachedSize@InsertDocRequest@server@mobile@@UEBAHXZ
?GetCachedSize@LocalIdMessage@server@mobile@@UEBAHXZ
?GetCachedSize@MessageIp@server@mobile@@UEBAHXZ
?GetCachedSize@OperIndexReply@server@mobile@@UEBAHXZ
?GetCachedSize@OperIndexRequest@server@mobile@@UEBAHXZ
?GetCachedSize@RealEntityCreateInfo@server@mobile@@UEBAHXZ
?GetCachedSize@RedisExecRequest@server@mobile@@UEBAHXZ
?GetCachedSize@RedisExecResponse@server@mobile@@UEBAHXZ
?GetCachedSize@RedisMultiExecRequest@server@mobile@@UEBAHXZ
?GetCachedSize@RedisMultiExecResponse@server@mobile@@UEBAHXZ
?GetCachedSize@RedisPiplineExecRequest@server@mobile@@UEBAHXZ
?GetCachedSize@RedisPiplineExecResponse@server@mobile@@UEBAHXZ
?GetCachedSize@RedisStatusMessage@server@mobile@@UEBAHXZ
?GetCachedSize@RegistMd5IndexMsg@server@mobile@@UEBAHXZ
?GetCachedSize@RunProcedureReply@server@mobile@@UEBAHXZ
?GetCachedSize@RunProcedureRequest@server@mobile@@UEBAHXZ
?GetCachedSize@Script@server@mobile@@UEBAHXZ
?GetCachedSize@ServerMethod@server@mobile@@UEBAHXZ
?GetCachedSize@ServiceInfos@server@mobile@@UEBAHXZ
?GetCachedSize@SessionIsp@server@mobile@@UEBAHXZ
?GetCachedSize@SessionKey@server@mobile@@UEBAHXZ
?GetCachedSize@SessionSeed@server@mobile@@UEBAHXZ
?GetCachedSize@SoulBindMsg@server@mobile@@UEBAHXZ
?GetCachedSize@SoulUnbindMsg@server@mobile@@UEBAHXZ
?GetCachedSize@UpdateDocReply@server@mobile@@UEBAHXZ
?GetCachedSize@UpdateDocRequest@server@mobile@@UEBAHXZ
?GetCategoryStats@MemoryMgr@AK@@YAXJAEAUCategoryStats@12@@Z
?GetContainerHistory@SoundEngine@AK@@YA?AW4AKRESULT@@PEAVIWriteBytes@2@@Z
?GetCurrentLanguage@StreamMgr@AK@@YAPEB_WXZ
?GetCustomPropertyValue@Query@SoundEngine@AK@@YA?AW4AKRESULT@@KKAEAJ@Z
?GetCustomPropertyValue@Query@SoundEngine@AK@@YA?AW4AKRESULT@@KKAEAM@Z
?GetDecodingMatrixShape@CAkSpeakerPan@@SAXUAkChannelConfig@@AEAKAEAH@Z
?GetDefaultDeviceSettings@StreamMgr@AK@@YAXAEAUAkDeviceSettings@@@Z
?GetDefaultInitSettings@MusicEngine@AK@@YAXAEAUAkMusicSettings@@@Z
?GetDefaultInitSettings@SoundEngine@AK@@YAXAEAUAkInitSettings@@@Z
?GetDefaultPlatformInitSettings@SoundEngine@AK@@YAXAEAUAkPlatformInitSettings@@@Z
?GetDefaultSettings@MemoryMgr@AK@@YAXAEAUAkMemSettings@@@Z
?GetDefaultSettings@StreamMgr@AK@@YAXAEAUAkStreamMgrSettings@@@Z
?GetDescriptor@IDbManager@server@mobile@@UEAAPEBVServiceDescriptor@protobuf@google@@XZ
?GetDescriptor@IDbManagerClient@server@mobile@@UEAAPEBVServiceDescriptor@protobuf@google@@XZ
?GetDescriptor@IGameClient@server@mobile@@UEAAPEBVServiceDescriptor@protobuf@google@@XZ
?GetDescriptor@IGameManager@server@mobile@@UEAAPEBVServiceDescriptor@protobuf@google@@XZ
?GetDescriptor@IGameManagerClient@server@mobile@@UEAAPEBVServiceDescriptor@protobuf@google@@XZ
?GetDescriptor@IGameService@server@mobile@@UEAAPEBVServiceDescriptor@protobuf@google@@XZ
?GetDescriptor@IGateClient@server@mobile@@UEAAPEBVServiceDescriptor@protobuf@google@@XZ
?GetDescriptor@IGateService@server@mobile@@UEAAPEBVServiceDescriptor@protobuf@google@@XZ
?GetDeviceID@AK@@YAKPEAUIMMDevice@@@Z
?GetDeviceIDFromName@AK@@YAKPEA_W@Z
?GetDeviceList@SoundEngine@AK@@YA?AW4AKRESULT@@KAEAKPEAUAkDeviceDescription@@@Z
?GetDeviceList@SoundEngine@AK@@YA?AW4AKRESULT@@KKAEAKPEAUAkDeviceDescription@@@Z
?GetDeviceSpatialAudioSupport@SoundEngine@AK@@YA?AW4AKRESULT@@K@Z
?GetDialogueEventCustomPropertyValue@DynamicDialogue@SoundEngine@AK@@YA?AW4AKRESULT@@KKAEAJ@Z
?GetDialogueEventCustomPropertyValue@DynamicDialogue@SoundEngine@AK@@YA?AW4AKRESULT@@KKAEAM@Z
?GetDirectSoundInstance@AK@@YAPEAUIDirectSound8@@XZ
?GetEventIDFromPlayingID@Query@SoundEngine@AK@@YAKK@Z
?GetFileLocationResolver@StreamMgr@AK@@YAPEAVIAkFileLocationResolver@12@XZ
?GetGameObjectAuxSendValues@Query@SoundEngine@AK@@YA?AW4AKRESULT@@_KPEAUAkAuxSendValue@@AEAK@Z
?GetGameObjectDryLevelValue@Query@SoundEngine@AK@@YA?AW4AKRESULT@@_K0AEAM@Z
?GetGameObjectFromPlayingID@Query@SoundEngine@AK@@YA_KK@Z
?GetGlobalPluginContext@SoundEngine@AK@@YAPEAVIAkGlobalPluginContext@2@XZ
?GetGlobalStats@MemoryMgr@AK@@YAXAEAUGlobalStats@12@@Z
?GetIDFromString@SoundEngine@AK@@YAKPEBD@Z
?GetIDFromString@SoundEngine@AK@@YAKPEB_W@Z
?GetIsGameObjectActive@Query@SoundEngine@AK@@YA_N_K@Z
?GetListenerPosition@Query@SoundEngine@AK@@YA?AW4AKRESULT@@_KAEAVAkTransform@@@Z
?GetListenerSpatialization@Query@SoundEngine@AK@@YA?AW4AKRESULT@@KAEA_NAEAPEAMAEAUAkChannelConfig@@@Z
?GetListeners@Query@SoundEngine@AK@@YA?AW4AKRESULT@@_KPEA_KAEAK@Z
?GetMaxRadius@Query@SoundEngine@AK@@YA?AW4AKRESULT@@AEAV?$AkArray@UGameObjDst@Query@SoundEngine@AK@@AEBU1234@U?$AkArrayAllocatorNoAlign@$0A@@@UAkGrowByPolicy_Proportional@@U?$AkAssignmentMovePolicy@UGameObjDst@Query@SoundEngine@AK@@@@@@@Z
?GetMaxRadius@Query@SoundEngine@AK@@YAM_K@Z
?GetMetadata@ActiveCompress@server@mobile@@UEBA?AUMetadata@protobuf@google@@XZ
?GetMetadata@CallDBRequest@server@mobile@@UEBA?AUMetadata@protobuf@google@@XZ
?GetMetadata@CallDBResponse@server@mobile@@UEBA?AUMetadata@protobuf@google@@XZ
?GetMetadata@CallbackId@server@mobile@@UEBA?AUMetadata@protobuf@google@@XZ
?GetMetadata@ClientBindMsg@server@mobile@@UEBA?AUMetadata@protobuf@google@@XZ
?GetMetadata@ClientInfo@server@mobile@@UEBA?AUMetadata@protobuf@google@@XZ
?GetMetadata@CountDocReply@server@mobile@@UEBA?AUMetadata@protobuf@google@@XZ
?GetMetadata@CountDocRequest@server@mobile@@UEBA?AUMetadata@protobuf@google@@XZ
?GetMetadata@CreateCollectionReply@server@mobile@@UEBA?AUMetadata@protobuf@google@@XZ
?GetMetadata@CreateCollectionRequest@server@mobile@@UEBA?AUMetadata@protobuf@google@@XZ
?GetMetadata@CtrlType@server@mobile@@UEBA?AUMetadata@protobuf@google@@XZ
?GetMetadata@CustomServiceInfo@server@mobile@@UEBA?AUMetadata@protobuf@google@@XZ
?GetMetadata@CustomServiceMsg@server@mobile@@UEBA?AUMetadata@protobuf@google@@XZ
?GetMetadata@DbServerInfo@server@mobile@@UEBA?AUMetadata@protobuf@google@@XZ
?GetMetadata@DbStatusMessage@server@mobile@@UEBA?AUMetadata@protobuf@google@@XZ
?GetMetadata@DeleteDocReply@server@mobile@@UEBA?AUMetadata@protobuf@google@@XZ
?GetMetadata@DeleteDocRequest@server@mobile@@UEBA?AUMetadata@protobuf@google@@XZ
?GetMetadata@EncryptString@server@mobile@@UEBA?AUMetadata@protobuf@google@@XZ
?GetMetadata@EntityInfoHeader@server@mobile@@UEBA?AUMetadata@protobuf@google@@XZ
?GetMetadata@FilterDataObj@server@mobile@@UEBA?AUMetadata@protobuf@google@@XZ
?GetMetadata@FilterUserDatas@server@mobile@@UEBA?AUMetadata@protobuf@google@@XZ
?GetMetadata@FindAndModifyDocReply@server@mobile@@UEBA?AUMetadata@protobuf@google@@XZ
?GetMetadata@FindAndModifyDocRequest@server@mobile@@UEBA?AUMetadata@protobuf@google@@XZ
?GetMetadata@FindDocReply@server@mobile@@UEBA?AUMetadata@protobuf@google@@XZ
?GetMetadata@FindDocRequest@server@mobile@@UEBA?AUMetadata@protobuf@google@@XZ
?GetMetadata@ForwardMessageHeader@server@mobile@@UEBA?AUMetadata@protobuf@google@@XZ
?GetMetadata@GameLoad@server@mobile@@UEBA?AUMetadata@protobuf@google@@XZ
?GetMetadata@GameServerInfos@server@mobile@@UEBA?AUMetadata@protobuf@google@@XZ
?GetMetadata@Gate2GameReturnVal@server@mobile@@UEBA?AUMetadata@protobuf@google@@XZ
?GetMetadata@GateInfo@server@mobile@@UEBA?AUMetadata@protobuf@google@@XZ
?GetMetadata@GateMailbox@server@mobile@@UEBA?AUMetadata@protobuf@google@@XZ
?GetMetadata@GateMessage@server@mobile@@UEBA?AUMetadata@protobuf@google@@XZ
?GetMetadata@GateReturnVal@server@mobile@@UEBA?AUMetadata@protobuf@google@@XZ
?GetMetadata@GlobalData@server@mobile@@UEBA?AUMetadata@protobuf@google@@XZ
?GetMetadata@GlobalEntityRegMsg@server@mobile@@UEBA?AUMetadata@protobuf@google@@XZ
?GetMetadata@GlobalMessage@server@mobile@@UEBA?AUMetadata@protobuf@google@@XZ
?GetMetadata@GmReturnVal@server@mobile@@UEBA?AUMetadata@protobuf@google@@XZ
?GetMetadata@InsertDocReply@server@mobile@@UEBA?AUMetadata@protobuf@google@@XZ
?GetMetadata@InsertDocRequest@server@mobile@@UEBA?AUMetadata@protobuf@google@@XZ
?GetMetadata@LocalIdMessage@server@mobile@@UEBA?AUMetadata@protobuf@google@@XZ
?GetMetadata@MessageIp@server@mobile@@UEBA?AUMetadata@protobuf@google@@XZ
?GetMetadata@OperIndexReply@server@mobile@@UEBA?AUMetadata@protobuf@google@@XZ
?GetMetadata@OperIndexRequest@server@mobile@@UEBA?AUMetadata@protobuf@google@@XZ
?GetMetadata@RealEntityCreateInfo@server@mobile@@UEBA?AUMetadata@protobuf@google@@XZ
?GetMetadata@RedisExecRequest@server@mobile@@UEBA?AUMetadata@protobuf@google@@XZ
?GetMetadata@RedisExecResponse@server@mobile@@UEBA?AUMetadata@protobuf@google@@XZ
?GetMetadata@RedisMultiExecRequest@server@mobile@@UEBA?AUMetadata@protobuf@google@@XZ
?GetMetadata@RedisMultiExecResponse@server@mobile@@UEBA?AUMetadata@protobuf@google@@XZ
?GetMetadata@RedisPiplineExecRequest@server@mobile@@UEBA?AUMetadata@protobuf@google@@XZ
?GetMetadata@RedisPiplineExecResponse@server@mobile@@UEBA?AUMetadata@protobuf@google@@XZ
?GetMetadata@RedisStatusMessage@server@mobile@@UEBA?AUMetadata@protobuf@google@@XZ
?GetMetadata@RegistMd5IndexMsg@server@mobile@@UEBA?AUMetadata@protobuf@google@@XZ
?GetMetadata@RunProcedureReply@server@mobile@@UEBA?AUMetadata@protobuf@google@@XZ
?GetMetadata@RunProcedureRequest@server@mobile@@UEBA?AUMetadata@protobuf@google@@XZ
?GetMetadata@Script@server@mobile@@UEBA?AUMetadata@protobuf@google@@XZ
?GetMetadata@ServerMethod@server@mobile@@UEBA?AUMetadata@protobuf@google@@XZ
?GetMetadata@ServiceInfos@server@mobile@@UEBA?AUMetadata@protobuf@google@@XZ
?GetMetadata@SessionIsp@server@mobile@@UEBA?AUMetadata@protobuf@google@@XZ
?GetMetadata@SessionKey@server@mobile@@UEBA?AUMetadata@protobuf@google@@XZ
?GetMetadata@SessionSeed@server@mobile@@UEBA?AUMetadata@protobuf@google@@XZ
?GetMetadata@SoulBindMsg@server@mobile@@UEBA?AUMetadata@protobuf@google@@XZ
?GetMetadata@SoulUnbindMsg@server@mobile@@UEBA?AUMetadata@protobuf@google@@XZ
?GetMetadata@UpdateDocReply@server@mobile@@UEBA?AUMetadata@protobuf@google@@XZ
?GetMetadata@UpdateDocRequest@server@mobile@@UEBA?AUMetadata@protobuf@google@@XZ
?GetObjAndAddref@CAkRegistryMgr@@QEAAPEAVCAkRegisteredObj@@_K@Z
?GetObjectObstructionAndOcclusion@Query@SoundEngine@AK@@YA?AW4AKRESULT@@_K0AEAM1@Z
?GetOutputID@SoundEngine@AK@@YA_KKK@Z
?GetOutputID@SoundEngine@AK@@YA_KPEBDK@Z
?GetOutputID@SoundEngine@AK@@YA_KPEB_WK@Z
?GetPanningRule@SoundEngine@AK@@YA?AW4AKRESULT@@AEAW4AkPanningRule@@_K@Z
?GetPauseTimes@DynamicSequence@SoundEngine@AK@@YA?AW4AKRESULT@@KAEAK0@Z
?GetPlayingIDsFromGameObject@Query@SoundEngine@AK@@YA?AW4AKRESULT@@_KAEAKPEAK@Z
?GetPlayingItem@DynamicSequence@SoundEngine@AK@@YA?AW4AKRESULT@@KAEAKAEAPEAX@Z
?GetPlayingSegmentInfo@MusicEngine@AK@@YA?AW4AKRESULT@@KAEAUAkSegmentInfo@@_N@Z
?GetPosition@Query@SoundEngine@AK@@YA?AW4AKRESULT@@_KAEAVAkTransform@@@Z
?GetPositioningInfo@Query@SoundEngine@AK@@YA?AW4AKRESULT@@KAEAUAkPositioningInfo@@@Z
?GetRTPCValue@Query@SoundEngine@AK@@YA?AW4AKRESULT@@K_KKAEAMAEAW4RTPCValue_type@123@@Z
?GetRTPCValue@Query@SoundEngine@AK@@YA?AW4AKRESULT@@PEBD_KKAEAMAEAW4RTPCValue_type@123@@Z
?GetRTPCValue@Query@SoundEngine@AK@@YA?AW4AKRESULT@@PEB_W_KKAEAMAEAW4RTPCValue_type@123@@Z
?GetRequestPrototype@IDbManager@server@mobile@@UEBAAEBVMessage@protobuf@google@@PEBVMethodDescriptor@56@@Z
?GetRequestPrototype@IDbManagerClient@server@mobile@@UEBAAEBVMessage@protobuf@google@@PEBVMethodDescriptor@56@@Z
?GetRequestPrototype@IGameClient@server@mobile@@UEBAAEBVMessage@protobuf@google@@PEBVMethodDescriptor@56@@Z
?GetRequestPrototype@IGameManager@server@mobile@@UEBAAEBVMessage@protobuf@google@@PEBVMethodDescriptor@56@@Z
?GetRequestPrototype@IGameManagerClient@server@mobile@@UEBAAEBVMessage@protobuf@google@@PEBVMethodDescriptor@56@@Z
?GetRequestPrototype@IGameService@server@mobile@@UEBAAEBVMessage@protobuf@google@@PEBVMethodDescriptor@56@@Z
?GetRequestPrototype@IGateClient@server@mobile@@UEBAAEBVMessage@protobuf@google@@PEBVMethodDescriptor@56@@Z
?GetRequestPrototype@IGateService@server@mobile@@UEBAAEBVMessage@protobuf@google@@PEBVMethodDescriptor@56@@Z
?GetResponsePrototype@IDbManager@server@mobile@@UEBAAEBVMessage@protobuf@google@@PEBVMethodDescriptor@56@@Z
?GetResponsePrototype@IDbManagerClient@server@mobile@@UEBAAEBVMessage@protobuf@google@@PEBVMethodDescriptor@56@@Z
?GetResponsePrototype@IGameClient@server@mobile@@UEBAAEBVMessage@protobuf@google@@PEBVMethodDescriptor@56@@Z
?GetResponsePrototype@IGameManager@server@mobile@@UEBAAEBVMessage@protobuf@google@@PEBVMethodDescriptor@56@@Z
?GetResponsePrototype@IGameManagerClient@server@mobile@@UEBAAEBVMessage@protobuf@google@@PEBVMethodDescriptor@56@@Z
?GetResponsePrototype@IGameService@server@mobile@@UEBAAEBVMessage@protobuf@google@@PEBVMethodDescriptor@56@@Z
?GetResponsePrototype@IGateClient@server@mobile@@UEBAAEBVMessage@protobuf@google@@PEBVMethodDescriptor@56@@Z
?GetResponsePrototype@IGateService@server@mobile@@UEBAAEBVMessage@protobuf@google@@PEBVMethodDescriptor@56@@Z
?GetSourcePlayPosition@SoundEngine@AK@@YA?AW4AKRESULT@@KPEAJ_N@Z
?GetSourcePlayPositions@SoundEngine@AK@@YA?AW4AKRESULT@@KPEAUAkSourcePosition@@PEAK_N@Z
?GetSourceStreamBuffering@SoundEngine@AK@@YA?AW4AKRESULT@@KAEAJAEA_N@Z
?GetSpeakerAngles@SoundEngine@AK@@YA?AW4AKRESULT@@PEAMAEAKAEAM_K@Z
?GetSpeakerConfiguration@SoundEngine@AK@@YA?AUAkChannelConfig@@_K@Z
?GetState@Query@SoundEngine@AK@@YA?AW4AKRESULT@@KAEAK@Z
?GetState@Query@SoundEngine@AK@@YA?AW4AKRESULT@@PEBDAEAK@Z
?GetState@Query@SoundEngine@AK@@YA?AW4AKRESULT@@PEB_WAEAK@Z
?GetSwitch@Query@SoundEngine@AK@@YA?AW4AKRESULT@@K_KAEAK@Z
?GetSwitch@Query@SoundEngine@AK@@YA?AW4AKRESULT@@PEBD_KAEAK@Z
?GetSwitch@Query@SoundEngine@AK@@YA?AW4AKRESULT@@PEB_W_KAEAK@Z
?GetTimeStamp@Monitor@AK@@YAJXZ
?GetWindowsDevice@AK@@YA_NJAEAKPEAPEAUIMMDevice@@W4AkAudioDeviceState@@@Z
?GetWindowsDeviceCount@AK@@YAKW4AkAudioDeviceState@@@Z
?GetWindowsDeviceName@AK@@YAPEB_WJAEAKW4AkAudioDeviceState@@@Z
?GetWwiseXAudio2Interface@AK@@YAPEAUIUnknown@@XZ
?GmReturnVal_CallbackType_IsValid@server@mobile@@YA_NH@Z
?GmReturnVal_CallbackType_descriptor@server@mobile@@YAPEBVEnumDescriptor@protobuf@google@@XZ
?IGNORE_CLIENT_ENTITY_MSG@CtrlType@server@mobile@@2W4CtrlType_CtrlOp@23@B
?Init@MemoryMgr@AK@@YA?AW4AKRESULT@@PEAUAkMemSettings@@@Z
?Init@MusicEngine@AK@@YA?AW4AKRESULT@@PEAUAkMusicSettings@@@Z
?Init@SoundEngine@AK@@YA?AW4AKRESULT@@PEAUAkInitSettings@@PEAUAkPlatformInitSettings@@@Z
?Init@SpatialAudio@AK@@YA?AW4AKRESULT@@AEBUAkSpatialAudioInitSettings@@@Z
?InitAsDefaultInstance@ActiveCompress@server@mobile@@AEAAXXZ
?InitAsDefaultInstance@CallDBRequest@server@mobile@@AEAAXXZ
?InitAsDefaultInstance@CallDBResponse@server@mobile@@AEAAXXZ
?InitAsDefaultInstance@CallbackId@server@mobile@@AEAAXXZ
?InitAsDefaultInstance@ClientBindMsg@server@mobile@@AEAAXXZ
?InitAsDefaultInstance@ClientInfo@server@mobile@@AEAAXXZ
?InitAsDefaultInstance@CountDocReply@server@mobile@@AEAAXXZ
?InitAsDefaultInstance@CountDocRequest@server@mobile@@AEAAXXZ
?InitAsDefaultInstance@CreateCollectionReply@server@mobile@@AEAAXXZ
?InitAsDefaultInstance@CreateCollectionRequest@server@mobile@@AEAAXXZ
?InitAsDefaultInstance@CtrlType@server@mobile@@AEAAXXZ
?InitAsDefaultInstance@CustomServiceInfo@server@mobile@@AEAAXXZ
?InitAsDefaultInstance@CustomServiceMsg@server@mobile@@AEAAXXZ
?InitAsDefaultInstance@DbServerInfo@server@mobile@@AEAAXXZ
?InitAsDefaultInstance@DbStatusMessage@server@mobile@@AEAAXXZ
?InitAsDefaultInstance@DeleteDocReply@server@mobile@@AEAAXXZ
?InitAsDefaultInstance@DeleteDocRequest@server@mobile@@AEAAXXZ
?InitAsDefaultInstance@EncryptString@server@mobile@@AEAAXXZ
?InitAsDefaultInstance@EntityInfoHeader@server@mobile@@AEAAXXZ
?InitAsDefaultInstance@FilterDataObj@server@mobile@@AEAAXXZ
?InitAsDefaultInstance@FilterUserDatas@server@mobile@@AEAAXXZ
?InitAsDefaultInstance@FindAndModifyDocReply@server@mobile@@AEAAXXZ
?InitAsDefaultInstance@FindAndModifyDocRequest@server@mobile@@AEAAXXZ
?InitAsDefaultInstance@FindDocReply@server@mobile@@AEAAXXZ
?InitAsDefaultInstance@FindDocRequest@server@mobile@@AEAAXXZ
?InitAsDefaultInstance@ForwardMessageHeader@server@mobile@@AEAAXXZ
?InitAsDefaultInstance@GameLoad@server@mobile@@AEAAXXZ
?InitAsDefaultInstance@GameServerInfos@server@mobile@@AEAAXXZ
?InitAsDefaultInstance@Gate2GameReturnVal@server@mobile@@AEAAXXZ
?InitAsDefaultInstance@GateInfo@server@mobile@@AEAAXXZ
?InitAsDefaultInstance@GateMailbox@server@mobile@@AEAAXXZ
?InitAsDefaultInstance@GateMessage@server@mobile@@AEAAXXZ
?InitAsDefaultInstance@GateReturnVal@server@mobile@@AEAAXXZ
?InitAsDefaultInstance@GlobalData@server@mobile@@AEAAXXZ
?InitAsDefaultInstance@GlobalEntityRegMsg@server@mobile@@AEAAXXZ
?InitAsDefaultInstance@GlobalMessage@server@mobile@@AEAAXXZ
?InitAsDefaultInstance@GmReturnVal@server@mobile@@AEAAXXZ
?InitAsDefaultInstance@InsertDocReply@server@mobile@@AEAAXXZ
?InitAsDefaultInstance@InsertDocRequest@server@mobile@@AEAAXXZ
?InitAsDefaultInstance@LocalIdMessage@server@mobile@@AEAAXXZ
?InitAsDefaultInstance@MessageIp@server@mobile@@AEAAXXZ
?InitAsDefaultInstance@OperIndexReply@server@mobile@@AEAAXXZ
?InitAsDefaultInstance@OperIndexRequest@server@mobile@@AEAAXXZ
?InitAsDefaultInstance@RealEntityCreateInfo@server@mobile@@AEAAXXZ
?InitAsDefaultInstance@RedisExecRequest@server@mobile@@AEAAXXZ
?InitAsDefaultInstance@RedisExecResponse@server@mobile@@AEAAXXZ
?InitAsDefaultInstance@RedisMultiExecRequest@server@mobile@@AEAAXXZ
?InitAsDefaultInstance@RedisMultiExecResponse@server@mobile@@AEAAXXZ
?InitAsDefaultInstance@RedisPiplineExecRequest@server@mobile@@AEAAXXZ
?InitAsDefaultInstance@RedisPiplineExecResponse@server@mobile@@AEAAXXZ
?InitAsDefaultInstance@RedisStatusMessage@server@mobile@@AEAAXXZ
?InitAsDefaultInstance@RegistMd5IndexMsg@server@mobile@@AEAAXXZ
?InitAsDefaultInstance@RunProcedureReply@server@mobile@@AEAAXXZ
?InitAsDefaultInstance@RunProcedureRequest@server@mobile@@AEAAXXZ
?InitAsDefaultInstance@Script@server@mobile@@AEAAXXZ
?InitAsDefaultInstance@ServerMethod@server@mobile@@AEAAXXZ
?InitAsDefaultInstance@ServiceInfos@server@mobile@@AEAAXXZ
?InitAsDefaultInstance@SessionIsp@server@mobile@@AEAAXXZ
?InitAsDefaultInstance@SessionKey@server@mobile@@AEAAXXZ
?InitAsDefaultInstance@SessionSeed@server@mobile@@AEAAXXZ
?InitAsDefaultInstance@SoulBindMsg@server@mobile@@AEAAXXZ
?InitAsDefaultInstance@SoulUnbindMsg@server@mobile@@AEAAXXZ
?InitAsDefaultInstance@UpdateDocReply@server@mobile@@AEAAXXZ
?InitAsDefaultInstance@UpdateDocRequest@server@mobile@@AEAAXXZ
?InitForThread@MemoryMgr@AK@@YAXXZ
?Instance@AkRuntimeEnvironmentMgr@AK@@SAPEAV12@XZ
?IsInitialized@ActiveCompress@server@mobile@@UEBA_NXZ
?IsInitialized@CallDBRequest@server@mobile@@UEBA_NXZ
?IsInitialized@CallDBResponse@server@mobile@@UEBA_NXZ
?IsInitialized@CallbackId@server@mobile@@UEBA_NXZ
?IsInitialized@ClientBindMsg@server@mobile@@UEBA_NXZ
?IsInitialized@ClientInfo@server@mobile@@UEBA_NXZ
?IsInitialized@CountDocReply@server@mobile@@UEBA_NXZ
?IsInitialized@CountDocRequest@server@mobile@@UEBA_NXZ
?IsInitialized@CreateCollectionReply@server@mobile@@UEBA_NXZ
?IsInitialized@CreateCollectionRequest@server@mobile@@UEBA_NXZ
?IsInitialized@CtrlType@server@mobile@@UEBA_NXZ
?IsInitialized@CustomServiceInfo@server@mobile@@UEBA_NXZ
?IsInitialized@CustomServiceMsg@server@mobile@@UEBA_NXZ
?IsInitialized@DbServerInfo@server@mobile@@UEBA_NXZ
?IsInitialized@DbStatusMessage@server@mobile@@UEBA_NXZ
?IsInitialized@DeleteDocReply@server@mobile@@UEBA_NXZ
?IsInitialized@DeleteDocRequest@server@mobile@@UEBA_NXZ
?IsInitialized@EncryptString@server@mobile@@UEBA_NXZ
?IsInitialized@EntityInfoHeader@server@mobile@@UEBA_NXZ
?IsInitialized@FilterDataObj@server@mobile@@UEBA_NXZ
?IsInitialized@FilterUserDatas@server@mobile@@UEBA_NXZ
?IsInitialized@FindAndModifyDocReply@server@mobile@@UEBA_NXZ
?IsInitialized@FindAndModifyDocRequest@server@mobile@@UEBA_NXZ
?IsInitialized@FindDocReply@server@mobile@@UEBA_NXZ
?IsInitialized@FindDocRequest@server@mobile@@UEBA_NXZ
?IsInitialized@ForwardMessageHeader@server@mobile@@UEBA_NXZ
?IsInitialized@GameLoad@server@mobile@@UEBA_NXZ
?IsInitialized@GameServerInfos@server@mobile@@UEBA_NXZ
?IsInitialized@Gate2GameReturnVal@server@mobile@@UEBA_NXZ
?IsInitialized@GateInfo@server@mobile@@UEBA_NXZ
?IsInitialized@GateMailbox@server@mobile@@UEBA_NXZ
?IsInitialized@GateMessage@server@mobile@@UEBA_NXZ
?IsInitialized@GateReturnVal@server@mobile@@UEBA_NXZ
?IsInitialized@GlobalData@server@mobile@@UEBA_NXZ
?IsInitialized@GlobalEntityRegMsg@server@mobile@@UEBA_NXZ
?IsInitialized@GlobalMessage@server@mobile@@UEBA_NXZ
?IsInitialized@GmReturnVal@server@mobile@@UEBA_NXZ
?IsInitialized@InsertDocReply@server@mobile@@UEBA_NXZ
?IsInitialized@InsertDocRequest@server@mobile@@UEBA_NXZ
?IsInitialized@LocalIdMessage@server@mobile@@UEBA_NXZ
?IsInitialized@MemoryMgr@AK@@YA_NXZ
?IsInitialized@MessageIp@server@mobile@@UEBA_NXZ
?IsInitialized@OperIndexReply@server@mobile@@UEBA_NXZ
?IsInitialized@OperIndexRequest@server@mobile@@UEBA_NXZ
?IsInitialized@RealEntityCreateInfo@server@mobile@@UEBA_NXZ
?IsInitialized@RedisExecRequest@server@mobile@@UEBA_NXZ
?IsInitialized@RedisExecResponse@server@mobile@@UEBA_NXZ
?IsInitialized@RedisMultiExecRequest@server@mobile@@UEBA_NXZ
?IsInitialized@RedisMultiExecResponse@server@mobile@@UEBA_NXZ
?IsInitialized@RedisPiplineExecRequest@server@mobile@@UEBA_NXZ
?IsInitialized@RedisPiplineExecResponse@server@mobile@@UEBA_NXZ
?IsInitialized@RedisStatusMessage@server@mobile@@UEBA_NXZ
?IsInitialized@RegistMd5IndexMsg@server@mobile@@UEBA_NXZ
?IsInitialized@RunProcedureReply@server@mobile@@UEBA_NXZ
?IsInitialized@RunProcedureRequest@server@mobile@@UEBA_NXZ
?IsInitialized@Script@server@mobile@@UEBA_NXZ
?IsInitialized@ServerMethod@server@mobile@@UEBA_NXZ
?IsInitialized@ServiceInfos@server@mobile@@UEBA_NXZ
?IsInitialized@SessionIsp@server@mobile@@UEBA_NXZ
?IsInitialized@SessionKey@server@mobile@@UEBA_NXZ
?IsInitialized@SessionSeed@server@mobile@@UEBA_NXZ
?IsInitialized@SoulBindMsg@server@mobile@@UEBA_NXZ
?IsInitialized@SoulUnbindMsg@server@mobile@@UEBA_NXZ
?IsInitialized@SoundEngine@AK@@YA_NXZ
?IsInitialized@UpdateDocReply@server@mobile@@UEBA_NXZ
?IsInitialized@UpdateDocRequest@server@mobile@@UEBA_NXZ
?LoadBank@SoundEngine@AK@@YA?AW4AKRESULT@@K@Z
?LoadBank@SoundEngine@AK@@YA?AW4AKRESULT@@KP6AXKPEBXW43@PEAX@Z2@Z
?LoadBank@SoundEngine@AK@@YA?AW4AKRESULT@@PEBDAEAK@Z
?LoadBank@SoundEngine@AK@@YA?AW4AKRESULT@@PEBDP6AXKPEBXW43@PEAX@Z3AEAK@Z
?LoadBank@SoundEngine@AK@@YA?AW4AKRESULT@@PEB_WAEAK@Z
?LoadBank@SoundEngine@AK@@YA?AW4AKRESULT@@PEB_WP6AXKPEBXW43@PEAX@Z3AEAK@Z
?LoadBankMemoryCopy@SoundEngine@AK@@YA?AW4AKRESULT@@PEBXKAEAK@Z
?LoadBankMemoryCopy@SoundEngine@AK@@YA?AW4AKRESULT@@PEBXKP6AXK0W43@PEAX@Z2AEAK@Z
?LoadBankMemoryView@SoundEngine@AK@@YA?AW4AKRESULT@@PEBXKAEAK@Z
?LoadBankMemoryView@SoundEngine@AK@@YA?AW4AKRESULT@@PEBXKP6AXK0W43@PEAX@Z2AEAK@Z
?LockPlaylist@DynamicSequence@SoundEngine@AK@@YAPEAVPlaylist@123@K@Z
?Malign@MemoryMgr@AK@@YAPEAXJ_KK@Z
?Malloc@MemoryMgr@AK@@YAPEAXJ_K@Z
?MergeFrom@ActiveCompress@server@mobile@@QEAAXAEBV123@@Z
?MergeFrom@ActiveCompress@server@mobile@@UEAAXAEBVMessage@protobuf@google@@@Z
?MergeFrom@CallDBRequest@server@mobile@@QEAAXAEBV123@@Z
?MergeFrom@CallDBRequest@server@mobile@@UEAAXAEBVMessage@protobuf@google@@@Z
?MergeFrom@CallDBResponse@server@mobile@@QEAAXAEBV123@@Z
?MergeFrom@CallDBResponse@server@mobile@@UEAAXAEBVMessage@protobuf@google@@@Z
?MergeFrom@CallbackId@server@mobile@@QEAAXAEBV123@@Z
?MergeFrom@CallbackId@server@mobile@@UEAAXAEBVMessage@protobuf@google@@@Z
?MergeFrom@ClientBindMsg@server@mobile@@QEAAXAEBV123@@Z
?MergeFrom@ClientBindMsg@server@mobile@@UEAAXAEBVMessage@protobuf@google@@@Z
?MergeFrom@ClientInfo@server@mobile@@QEAAXAEBV123@@Z
?MergeFrom@ClientInfo@server@mobile@@UEAAXAEBVMessage@protobuf@google@@@Z
?MergeFrom@CountDocReply@server@mobile@@QEAAXAEBV123@@Z
?MergeFrom@CountDocReply@server@mobile@@UEAAXAEBVMessage@protobuf@google@@@Z
?MergeFrom@CountDocRequest@server@mobile@@QEAAXAEBV123@@Z
?MergeFrom@CountDocRequest@server@mobile@@UEAAXAEBVMessage@protobuf@google@@@Z
?MergeFrom@CreateCollectionReply@server@mobile@@QEAAXAEBV123@@Z
?MergeFrom@CreateCollectionReply@server@mobile@@UEAAXAEBVMessage@protobuf@google@@@Z
?MergeFrom@CreateCollectionRequest@server@mobile@@QEAAXAEBV123@@Z
?MergeFrom@CreateCollectionRequest@server@mobile@@UEAAXAEBVMessage@protobuf@google@@@Z
?MergeFrom@CtrlType@server@mobile@@QEAAXAEBV123@@Z
?MergeFrom@CtrlType@server@mobile@@UEAAXAEBVMessage@protobuf@google@@@Z
?MergeFrom@CustomServiceInfo@server@mobile@@QEAAXAEBV123@@Z
?MergeFrom@CustomServiceInfo@server@mobile@@UEAAXAEBVMessage@protobuf@google@@@Z
?MergeFrom@CustomServiceMsg@server@mobile@@QEAAXAEBV123@@Z
?MergeFrom@CustomServiceMsg@server@mobile@@UEAAXAEBVMessage@protobuf@google@@@Z
?MergeFrom@DbServerInfo@server@mobile@@QEAAXAEBV123@@Z
?MergeFrom@DbServerInfo@server@mobile@@UEAAXAEBVMessage@protobuf@google@@@Z
?MergeFrom@DbStatusMessage@server@mobile@@QEAAXAEBV123@@Z
?MergeFrom@DbStatusMessage@server@mobile@@UEAAXAEBVMessage@protobuf@google@@@Z
?MergeFrom@DeleteDocReply@server@mobile@@QEAAXAEBV123@@Z
?MergeFrom@DeleteDocReply@server@mobile@@UEAAXAEBVMessage@protobuf@google@@@Z
?MergeFrom@DeleteDocRequest@server@mobile@@QEAAXAEBV123@@Z
?MergeFrom@DeleteDocRequest@server@mobile@@UEAAXAEBVMessage@protobuf@google@@@Z
?MergeFrom@EncryptString@server@mobile@@QEAAXAEBV123@@Z
?MergeFrom@EncryptString@server@mobile@@UEAAXAEBVMessage@protobuf@google@@@Z
?MergeFrom@EntityInfoHeader@server@mobile@@QEAAXAEBV123@@Z
?MergeFrom@EntityInfoHeader@server@mobile@@UEAAXAEBVMessage@protobuf@google@@@Z
?MergeFrom@FilterDataObj@server@mobile@@QEAAXAEBV123@@Z
?MergeFrom@FilterDataObj@server@mobile@@UEAAXAEBVMessage@protobuf@google@@@Z
?MergeFrom@FilterUserDatas@server@mobile@@QEAAXAEBV123@@Z
?MergeFrom@FilterUserDatas@server@mobile@@UEAAXAEBVMessage@protobuf@google@@@Z
?MergeFrom@FindAndModifyDocReply@server@mobile@@QEAAXAEBV123@@Z
?MergeFrom@FindAndModifyDocReply@server@mobile@@UEAAXAEBVMessage@protobuf@google@@@Z
?MergeFrom@FindAndModifyDocRequest@server@mobile@@QEAAXAEBV123@@Z
?MergeFrom@FindAndModifyDocRequest@server@mobile@@UEAAXAEBVMessage@protobuf@google@@@Z
?MergeFrom@FindDocReply@server@mobile@@QEAAXAEBV123@@Z
?MergeFrom@FindDocReply@server@mobile@@UEAAXAEBVMessage@protobuf@google@@@Z
?MergeFrom@FindDocRequest@server@mobile@@QEAAXAEBV123@@Z
?MergeFrom@FindDocRequest@server@mobile@@UEAAXAEBVMessage@protobuf@google@@@Z
?MergeFrom@ForwardMessageHeader@server@mobile@@QEAAXAEBV123@@Z
?MergeFrom@ForwardMessageHeader@server@mobile@@UEAAXAEBVMessage@protobuf@google@@@Z
?MergeFrom@GameLoad@server@mobile@@QEAAXAEBV123@@Z
?MergeFrom@GameLoad@server@mobile@@UEAAXAEBVMessage@protobuf@google@@@Z
?MergeFrom@GameServerInfos@server@mobile@@QEAAXAEBV123@@Z
?MergeFrom@GameServerInfos@server@mobile@@UEAAXAEBVMessage@protobuf@google@@@Z
?MergeFrom@Gate2GameReturnVal@server@mobile@@QEAAXAEBV123@@Z
?MergeFrom@Gate2GameReturnVal@server@mobile@@UEAAXAEBVMessage@protobuf@google@@@Z
?MergeFrom@GateInfo@server@mobile@@QEAAXAEBV123@@Z
?MergeFrom@GateInfo@server@mobile@@UEAAXAEBVMessage@protobuf@google@@@Z
?MergeFrom@GateMailbox@server@mobile@@QEAAXAEBV123@@Z
?MergeFrom@GateMailbox@server@mobile@@UEAAXAEBVMessage@protobuf@google@@@Z
?MergeFrom@GateMessage@server@mobile@@QEAAXAEBV123@@Z
?MergeFrom@GateMessage@server@mobile@@UEAAXAEBVMessage@protobuf@google@@@Z
?MergeFrom@GateReturnVal@server@mobile@@QEAAXAEBV123@@Z
?MergeFrom@GateReturnVal@server@mobile@@UEAAXAEBVMessage@protobuf@google@@@Z
?MergeFrom@GlobalData@server@mobile@@QEAAXAEBV123@@Z
?MergeFrom@GlobalData@server@mobile@@UEAAXAEBVMessage@protobuf@google@@@Z
?MergeFrom@GlobalEntityRegMsg@server@mobile@@QEAAXAEBV123@@Z
?MergeFrom@GlobalEntityRegMsg@server@mobile@@UEAAXAEBVMessage@protobuf@google@@@Z
?MergeFrom@GlobalMessage@server@mobile@@QEAAXAEBV123@@Z
?MergeFrom@GlobalMessage@server@mobile@@UEAAXAEBVMessage@protobuf@google@@@Z
?MergeFrom@GmReturnVal@server@mobile@@QEAAXAEBV123@@Z
?MergeFrom@GmReturnVal@server@mobile@@UEAAXAEBVMessage@protobuf@google@@@Z
?MergeFrom@InsertDocReply@server@mobile@@QEAAXAEBV123@@Z
?MergeFrom@InsertDocReply@server@mobile@@UEAAXAEBVMessage@protobuf@google@@@Z
?MergeFrom@InsertDocRequest@server@mobile@@QEAAXAEBV123@@Z
?MergeFrom@InsertDocRequest@server@mobile@@UEAAXAEBVMessage@protobuf@google@@@Z
?MergeFrom@LocalIdMessage@server@mobile@@QEAAXAEBV123@@Z
?MergeFrom@LocalIdMessage@server@mobile@@UEAAXAEBVMessage@protobuf@google@@@Z
?MergeFrom@MessageIp@server@mobile@@QEAAXAEBV123@@Z
?MergeFrom@MessageIp@server@mobile@@UEAAXAEBVMessage@protobuf@google@@@Z
?MergeFrom@OperIndexReply@server@mobile@@QEAAXAEBV123@@Z
?MergeFrom@OperIndexReply@server@mobile@@UEAAXAEBVMessage@protobuf@google@@@Z
?MergeFrom@OperIndexRequest@server@mobile@@QEAAXAEBV123@@Z
?MergeFrom@OperIndexRequest@server@mobile@@UEAAXAEBVMessage@protobuf@google@@@Z
?MergeFrom@RealEntityCreateInfo@server@mobile@@QEAAXAEBV123@@Z
?MergeFrom@RealEntityCreateInfo@server@mobile@@UEAAXAEBVMessage@protobuf@google@@@Z
?MergeFrom@RedisExecRequest@server@mobile@@QEAAXAEBV123@@Z
?MergeFrom@RedisExecRequest@server@mobile@@UEAAXAEBVMessage@protobuf@google@@@Z
?MergeFrom@RedisExecResponse@server@mobile@@QEAAXAEBV123@@Z
?MergeFrom@RedisExecResponse@server@mobile@@UEAAXAEBVMessage@protobuf@google@@@Z
?MergeFrom@RedisMultiExecRequest@server@mobile@@QEAAXAEBV123@@Z
?MergeFrom@RedisMultiExecRequest@server@mobile@@UEAAXAEBVMessage@protobuf@google@@@Z
?MergeFrom@RedisMultiExecResponse@server@mobile@@QEAAXAEBV123@@Z
?MergeFrom@RedisMultiExecResponse@server@mobile@@UEAAXAEBVMessage@protobuf@google@@@Z
?MergeFrom@RedisPiplineExecRequest@server@mobile@@QEAAXAEBV123@@Z
?MergeFrom@RedisPiplineExecRequest@server@mobile@@UEAAXAEBVMessage@protobuf@google@@@Z
?MergeFrom@RedisPiplineExecResponse@server@mobile@@QEAAXAEBV123@@Z
?MergeFrom@RedisPiplineExecResponse@server@mobile@@UEAAXAEBVMessage@protobuf@google@@@Z
?MergeFrom@RedisStatusMessage@server@mobile@@QEAAXAEBV123@@Z
?MergeFrom@RedisStatusMessage@server@mobile@@UEAAXAEBVMessage@protobuf@google@@@Z
?MergeFrom@RegistMd5IndexMsg@server@mobile@@QEAAXAEBV123@@Z
?MergeFrom@RegistMd5IndexMsg@server@mobile@@UEAAXAEBVMessage@protobuf@google@@@Z
?MergeFrom@RunProcedureReply@server@mobile@@QEAAXAEBV123@@Z
?MergeFrom@RunProcedureReply@server@mobile@@UEAAXAEBVMessage@protobuf@google@@@Z
?MergeFrom@RunProcedureRequest@server@mobile@@QEAAXAEBV123@@Z
?MergeFrom@RunProcedureRequest@server@mobile@@UEAAXAEBVMessage@protobuf@google@@@Z
?MergeFrom@Script@server@mobile@@QEAAXAEBV123@@Z
?MergeFrom@Script@server@mobile@@UEAAXAEBVMessage@protobuf@google@@@Z
?MergeFrom@ServerMethod@server@mobile@@QEAAXAEBV123@@Z
?MergeFrom@ServerMethod@server@mobile@@UEAAXAEBVMessage@protobuf@google@@@Z
?MergeFrom@ServiceInfos@server@mobile@@QEAAXAEBV123@@Z
?MergeFrom@ServiceInfos@server@mobile@@UEAAXAEBVMessage@protobuf@google@@@Z
?MergeFrom@SessionIsp@server@mobile@@QEAAXAEBV123@@Z
?MergeFrom@SessionIsp@server@mobile@@UEAAXAEBVMessage@protobuf@google@@@Z
?MergeFrom@SessionKey@server@mobile@@QEAAXAEBV123@@Z
?MergeFrom@SessionKey@server@mobile@@UEAAXAEBVMessage@protobuf@google@@@Z
?MergeFrom@SessionSeed@server@mobile@@QEAAXAEBV123@@Z
?MergeFrom@SessionSeed@server@mobile@@UEAAXAEBVMessage@protobuf@google@@@Z
?MergeFrom@SoulBindMsg@server@mobile@@QEAAXAEBV123@@Z
?MergeFrom@SoulBindMsg@server@mobile@@UEAAXAEBVMessage@protobuf@google@@@Z
?MergeFrom@SoulUnbindMsg@server@mobile@@QEAAXAEBV123@@Z
?MergeFrom@SoulUnbindMsg@server@mobile@@UEAAXAEBVMessage@protobuf@google@@@Z
?MergeFrom@UpdateDocReply@server@mobile@@QEAAXAEBV123@@Z
?MergeFrom@UpdateDocReply@server@mobile@@UEAAXAEBVMessage@protobuf@google@@@Z
?MergeFrom@UpdateDocRequest@server@mobile@@QEAAXAEBV123@@Z
?MergeFrom@UpdateDocRequest@server@mobile@@UEAAXAEBVMessage@protobuf@google@@@Z
?MergePartialFromCodedStream@ActiveCompress@server@mobile@@UEAA_NPEAVCodedInputStream@io@protobuf@google@@@Z
?MergePartialFromCodedStream@CallDBRequest@server@mobile@@UEAA_NPEAVCodedInputStream@io@protobuf@google@@@Z
?MergePartialFromCodedStream@CallDBResponse@server@mobile@@UEAA_NPEAVCodedInputStream@io@protobuf@google@@@Z
?MergePartialFromCodedStream@CallbackId@server@mobile@@UEAA_NPEAVCodedInputStream@io@protobuf@google@@@Z
?MergePartialFromCodedStream@ClientBindMsg@server@mobile@@UEAA_NPEAVCodedInputStream@io@protobuf@google@@@Z
?MergePartialFromCodedStream@ClientInfo@server@mobile@@UEAA_NPEAVCodedInputStream@io@protobuf@google@@@Z
?MergePartialFromCodedStream@CountDocReply@server@mobile@@UEAA_NPEAVCodedInputStream@io@protobuf@google@@@Z
?MergePartialFromCodedStream@CountDocRequest@server@mobile@@UEAA_NPEAVCodedInputStream@io@protobuf@google@@@Z
?MergePartialFromCodedStream@CreateCollectionReply@server@mobile@@UEAA_NPEAVCodedInputStream@io@protobuf@google@@@Z
?MergePartialFromCodedStream@CreateCollectionRequest@server@mobile@@UEAA_NPEAVCodedInputStream@io@protobuf@google@@@Z
?MergePartialFromCodedStream@CtrlType@server@mobile@@UEAA_NPEAVCodedInputStream@io@protobuf@google@@@Z
?MergePartialFromCodedStream@CustomServiceInfo@server@mobile@@UEAA_NPEAVCodedInputStream@io@protobuf@google@@@Z
?MergePartialFromCodedStream@CustomServiceMsg@server@mobile@@UEAA_NPEAVCodedInputStream@io@protobuf@google@@@Z
?MergePartialFromCodedStream@DbServerInfo@server@mobile@@UEAA_NPEAVCodedInputStream@io@protobuf@google@@@Z
?MergePartialFromCodedStream@DbStatusMessage@server@mobile@@UEAA_NPEAVCodedInputStream@io@protobuf@google@@@Z
?MergePartialFromCodedStream@DeleteDocReply@server@mobile@@UEAA_NPEAVCodedInputStream@io@protobuf@google@@@Z
?MergePartialFromCodedStream@DeleteDocRequest@server@mobile@@UEAA_NPEAVCodedInputStream@io@protobuf@google@@@Z
?MergePartialFromCodedStream@EncryptString@server@mobile@@UEAA_NPEAVCodedInputStream@io@protobuf@google@@@Z
?MergePartialFromCodedStream@EntityInfoHeader@server@mobile@@UEAA_NPEAVCodedInputStream@io@protobuf@google@@@Z
?MergePartialFromCodedStream@FilterDataObj@server@mobile@@UEAA_NPEAVCodedInputStream@io@protobuf@google@@@Z
?MergePartialFromCodedStream@FilterUserDatas@server@mobile@@UEAA_NPEAVCodedInputStream@io@protobuf@google@@@Z
?MergePartialFromCodedStream@FindAndModifyDocReply@server@mobile@@UEAA_NPEAVCodedInputStream@io@protobuf@google@@@Z
?MergePartialFromCodedStream@FindAndModifyDocRequest@server@mobile@@UEAA_NPEAVCodedInputStream@io@protobuf@google@@@Z
?MergePartialFromCodedStream@FindDocReply@server@mobile@@UEAA_NPEAVCodedInputStream@io@protobuf@google@@@Z
?MergePartialFromCodedStream@FindDocRequest@server@mobile@@UEAA_NPEAVCodedInputStream@io@protobuf@google@@@Z
?MergePartialFromCodedStream@ForwardMessageHeader@server@mobile@@UEAA_NPEAVCodedInputStream@io@protobuf@google@@@Z
?MergePartialFromCodedStream@GameLoad@server@mobile@@UEAA_NPEAVCodedInputStream@io@protobuf@google@@@Z
?MergePartialFromCodedStream@GameServerInfos@server@mobile@@UEAA_NPEAVCodedInputStream@io@protobuf@google@@@Z
?MergePartialFromCodedStream@Gate2GameReturnVal@server@mobile@@UEAA_NPEAVCodedInputStream@io@protobuf@google@@@Z
?MergePartialFromCodedStream@GateInfo@server@mobile@@UEAA_NPEAVCodedInputStream@io@protobuf@google@@@Z
?MergePartialFromCodedStream@GateMailbox@server@mobile@@UEAA_NPEAVCodedInputStream@io@protobuf@google@@@Z
?MergePartialFromCodedStream@GateMessage@server@mobile@@UEAA_NPEAVCodedInputStream@io@protobuf@google@@@Z
?MergePartialFromCodedStream@GateReturnVal@server@mobile@@UEAA_NPEAVCodedInputStream@io@protobuf@google@@@Z
?MergePartialFromCodedStream@GlobalData@server@mobile@@UEAA_NPEAVCodedInputStream@io@protobuf@google@@@Z
?MergePartialFromCodedStream@GlobalEntityRegMsg@server@mobile@@UEAA_NPEAVCodedInputStream@io@protobuf@google@@@Z
?MergePartialFromCodedStream@GlobalMessage@server@mobile@@UEAA_NPEAVCodedInputStream@io@protobuf@google@@@Z
?MergePartialFromCodedStream@GmReturnVal@server@mobile@@UEAA_NPEAVCodedInputStream@io@protobuf@google@@@Z
?MergePartialFromCodedStream@InsertDocReply@server@mobile@@UEAA_NPEAVCodedInputStream@io@protobuf@google@@@Z
?MergePartialFromCodedStream@InsertDocRequest@server@mobile@@UEAA_NPEAVCodedInputStream@io@protobuf@google@@@Z
?MergePartialFromCodedStream@LocalIdMessage@server@mobile@@UEAA_NPEAVCodedInputStream@io@protobuf@google@@@Z
?MergePartialFromCodedStream@MessageIp@server@mobile@@UEAA_NPEAVCodedInputStream@io@protobuf@google@@@Z
?MergePartialFromCodedStream@OperIndexReply@server@mobile@@UEAA_NPEAVCodedInputStream@io@protobuf@google@@@Z
?MergePartialFromCodedStream@OperIndexRequest@server@mobile@@UEAA_NPEAVCodedInputStream@io@protobuf@google@@@Z
?MergePartialFromCodedStream@RealEntityCreateInfo@server@mobile@@UEAA_NPEAVCodedInputStream@io@protobuf@google@@@Z
?MergePartialFromCodedStream@RedisExecRequest@server@mobile@@UEAA_NPEAVCodedInputStream@io@protobuf@google@@@Z
?MergePartialFromCodedStream@RedisExecResponse@server@mobile@@UEAA_NPEAVCodedInputStream@io@protobuf@google@@@Z
?MergePartialFromCodedStream@RedisMultiExecRequest@server@mobile@@UEAA_NPEAVCodedInputStream@io@protobuf@google@@@Z
?MergePartialFromCodedStream@RedisMultiExecResponse@server@mobile@@UEAA_NPEAVCodedInputStream@io@protobuf@google@@@Z
?MergePartialFromCodedStream@RedisPiplineExecRequest@server@mobile@@UEAA_NPEAVCodedInputStream@io@protobuf@google@@@Z
?MergePartialFromCodedStream@RedisPiplineExecResponse@server@mobile@@UEAA_NPEAVCodedInputStream@io@protobuf@google@@@Z
?MergePartialFromCodedStream@RedisStatusMessage@server@mobile@@UEAA_NPEAVCodedInputStream@io@protobuf@google@@@Z
?MergePartialFromCodedStream@RegistMd5IndexMsg@server@mobile@@UEAA_NPEAVCodedInputStream@io@protobuf@google@@@Z
?MergePartialFromCodedStream@RunProcedureReply@server@mobile@@UEAA_NPEAVCodedInputStream@io@protobuf@google@@@Z
?MergePartialFromCodedStream@RunProcedureRequest@server@mobile@@UEAA_NPEAVCodedInputStream@io@protobuf@google@@@Z
?MergePartialFromCodedStream@Script@server@mobile@@UEAA_NPEAVCodedInputStream@io@protobuf@google@@@Z
?MergePartialFromCodedStream@ServerMethod@server@mobile@@UEAA_NPEAVCodedInputStream@io@protobuf@google@@@Z
?MergePartialFromCodedStream@ServiceInfos@server@mobile@@UEAA_NPEAVCodedInputStream@io@protobuf@google@@@Z
?MergePartialFromCodedStream@SessionIsp@server@mobile@@UEAA_NPEAVCodedInputStream@io@protobuf@google@@@Z
?MergePartialFromCodedStream@SessionKey@server@mobile@@UEAA_NPEAVCodedInputStream@io@protobuf@google@@@Z
?MergePartialFromCodedStream@SessionSeed@server@mobile@@UEAA_NPEAVCodedInputStream@io@protobuf@google@@@Z
?MergePartialFromCodedStream@SoulBindMsg@server@mobile@@UEAA_NPEAVCodedInputStream@io@protobuf@google@@@Z
?MergePartialFromCodedStream@SoulUnbindMsg@server@mobile@@UEAA_NPEAVCodedInputStream@io@protobuf@google@@@Z
?MergePartialFromCodedStream@UpdateDocReply@server@mobile@@UEAA_NPEAVCodedInputStream@io@protobuf@google@@@Z
?MergePartialFromCodedStream@UpdateDocRequest@server@mobile@@UEAA_NPEAVCodedInputStream@io@protobuf@google@@@Z
?MixBypassNinNChannels@AkMixer@@YAXPEAVAkAudioBuffer@@0AEAUAkRamp@@PEBM2MGPEAVCAkSrcLpHpFilter@@@Z
?MixChannel@AkMixer@@YAXPEAM0MMK@Z
?MixFilterNinNChannels@AkMixer@@YAXPEAVAkAudioBuffer@@0AEAUAkRamp@@PEBM2MGPEAVCAkSrcLpHpFilter@@@Z
?MixNinNChannels@AkMixer@@YAXPEAVAkAudioBuffer@@0AEAUAkRamp@@PEBM2MG@Z
?MixOneInNChannels@AkMixer@@YAXPEIAMPEAVAkAudioBuffer@@UAkChannelConfig@@AEAUAkRamp@@PEBM4MG@Z
?MuteBackgroundMusic@SoundEngine@AK@@YAX_N@Z
?NOP@CtrlType@server@mobile@@2W4CtrlType_CtrlOp@23@B
?NOTIFY_SERVER_CLOSED@CtrlType@server@mobile@@2W4CtrlType_CtrlOp@23@B
?NOTIFY_SERVER_CLOSING@CtrlType@server@mobile@@2W4CtrlType_CtrlOp@23@B
?NO_SUCH_CALLBACK@Gate2GameReturnVal@server@mobile@@2W4Gate2GameReturnVal_CallbackType@23@B
?NO_SUCH_CALLBACK@GmReturnVal@server@mobile@@2W4GmReturnVal_CallbackType@23@B
?New@ActiveCompress@server@mobile@@UEBAPEAV123@XZ
?New@CallDBRequest@server@mobile@@UEBAPEAV123@XZ
?New@CallDBResponse@server@mobile@@UEBAPEAV123@XZ
?New@CallbackId@server@mobile@@UEBAPEAV123@XZ
?New@ClientBindMsg@server@mobile@@UEBAPEAV123@XZ
?New@ClientInfo@server@mobile@@UEBAPEAV123@XZ
?New@CountDocReply@server@mobile@@UEBAPEAV123@XZ
?New@CountDocRequest@server@mobile@@UEBAPEAV123@XZ
?New@CreateCollectionReply@server@mobile@@UEBAPEAV123@XZ
?New@CreateCollectionRequest@server@mobile@@UEBAPEAV123@XZ
?New@CtrlType@server@mobile@@UEBAPEAV123@XZ
?New@CustomServiceInfo@server@mobile@@UEBAPEAV123@XZ
?New@CustomServiceMsg@server@mobile@@UEBAPEAV123@XZ
?New@DbServerInfo@server@mobile@@UEBAPEAV123@XZ
?New@DbStatusMessage@server@mobile@@UEBAPEAV123@XZ
?New@DeleteDocReply@server@mobile@@UEBAPEAV123@XZ
?New@DeleteDocRequest@server@mobile@@UEBAPEAV123@XZ
?New@EncryptString@server@mobile@@UEBAPEAV123@XZ
?New@EntityInfoHeader@server@mobile@@UEBAPEAV123@XZ
?New@FilterDataObj@server@mobile@@UEBAPEAV123@XZ
?New@FilterUserDatas@server@mobile@@UEBAPEAV123@XZ
?New@FindAndModifyDocReply@server@mobile@@UEBAPEAV123@XZ
?New@FindAndModifyDocRequest@server@mobile@@UEBAPEAV123@XZ
?New@FindDocReply@server@mobile@@UEBAPEAV123@XZ
?New@FindDocRequest@server@mobile@@UEBAPEAV123@XZ
?New@ForwardMessageHeader@server@mobile@@UEBAPEAV123@XZ
?New@GameLoad@server@mobile@@UEBAPEAV123@XZ
?New@GameServerInfos@server@mobile@@UEBAPEAV123@XZ
?New@Gate2GameReturnVal@server@mobile@@UEBAPEAV123@XZ
?New@GateInfo@server@mobile@@UEBAPEAV123@XZ
?New@GateMailbox@server@mobile@@UEBAPEAV123@XZ
?New@GateMessage@server@mobile@@UEBAPEAV123@XZ
?New@GateReturnVal@server@mobile@@UEBAPEAV123@XZ
?New@GlobalData@server@mobile@@UEBAPEAV123@XZ
?New@GlobalEntityRegMsg@server@mobile@@UEBAPEAV123@XZ
?New@GlobalMessage@server@mobile@@UEBAPEAV123@XZ
?New@GmReturnVal@server@mobile@@UEBAPEAV123@XZ
?New@InsertDocReply@server@mobile@@UEBAPEAV123@XZ
?New@InsertDocRequest@server@mobile@@UEBAPEAV123@XZ
?New@LocalIdMessage@server@mobile@@UEBAPEAV123@XZ
?New@MessageIp@server@mobile@@UEBAPEAV123@XZ
?New@OperIndexReply@server@mobile@@UEBAPEAV123@XZ
?New@OperIndexRequest@server@mobile@@UEBAPEAV123@XZ
?New@RealEntityCreateInfo@server@mobile@@UEBAPEAV123@XZ
?New@RedisExecRequest@server@mobile@@UEBAPEAV123@XZ
?New@RedisExecResponse@server@mobile@@UEBAPEAV123@XZ
?New@RedisMultiExecRequest@server@mobile@@UEBAPEAV123@XZ
?New@RedisMultiExecResponse@server@mobile@@UEBAPEAV123@XZ
?New@RedisPiplineExecRequest@server@mobile@@UEBAPEAV123@XZ
?New@RedisPiplineExecResponse@server@mobile@@UEBAPEAV123@XZ
?New@RedisStatusMessage@server@mobile@@UEBAPEAV123@XZ
?New@RegistMd5IndexMsg@server@mobile@@UEBAPEAV123@XZ
?New@RunProcedureReply@server@mobile@@UEBAPEAV123@XZ
?New@RunProcedureRequest@server@mobile@@UEBAPEAV123@XZ
?New@Script@server@mobile@@UEBAPEAV123@XZ
?New@ServerMethod@server@mobile@@UEBAPEAV123@XZ
?New@ServiceInfos@server@mobile@@UEBAPEAV123@XZ
?New@SessionIsp@server@mobile@@UEBAPEAV123@XZ
?New@SessionKey@server@mobile@@UEBAPEAV123@XZ
?New@SessionSeed@server@mobile@@UEBAPEAV123@XZ
?New@SoulBindMsg@server@mobile@@UEBAPEAV123@XZ
?New@SoulUnbindMsg@server@mobile@@UEBAPEAV123@XZ
?New@UpdateDocReply@server@mobile@@UEBAPEAV123@XZ
?New@UpdateDocRequest@server@mobile@@UEBAPEAV123@XZ
?Open@DynamicSequence@SoundEngine@AK@@YAK_KKP6AXW4AkCallbackType@@PEAUAkCallbackInfo@@@ZPEAXW4DynamicSequenceType@123@@Z
?OperIndexRequest_OperType_IsValid@server@mobile@@YA_NH@Z
?OperIndexRequest_OperType_descriptor@server@mobile@@YAPEBVEnumDescriptor@protobuf@google@@XZ
?OperType_ARRAYSIZE@OperIndexRequest@server@mobile@@2HB
?OperType_IsValid@OperIndexRequest@server@mobile@@SA_NH@Z
?OperType_MAX@OperIndexRequest@server@mobile@@2W4OperIndexRequest_OperType@23@B
?OperType_MIN@OperIndexRequest@server@mobile@@2W4OperIndexRequest_OperType@23@B
?OperType_Name@OperIndexRequest@server@mobile@@SAAEBV?$basic_string@DU?$char_traits@D@std@@V?$allocator@D@2@@std@@W4OperIndexRequest_OperType@23@@Z
?OperType_Parse@OperIndexRequest@server@mobile@@SA_NAEBV?$basic_string@DU?$char_traits@D@std@@V?$allocator@D@2@@std@@PEAW4OperIndexRequest_OperType@23@@Z
?OperType_descriptor@OperIndexRequest@server@mobile@@SAPEBVEnumDescriptor@protobuf@google@@XZ
?Pause@DynamicSequence@SoundEngine@AK@@YA?AW4AKRESULT@@KJW4AkCurveInterpolation@@@Z
?PinEventInStreamCache@SoundEngine@AK@@YA?AW4AKRESULT@@KDD@Z
?PinEventInStreamCache@SoundEngine@AK@@YA?AW4AKRESULT@@PEBDDD@Z
?PinEventInStreamCache@SoundEngine@AK@@YA?AW4AKRESULT@@PEB_WDD@Z
?Play@DynamicSequence@SoundEngine@AK@@YA?AW4AKRESULT@@KJW4AkCurveInterpolation@@@Z
?PlaySourcePlugin@SoundEngine@AK@@YAKKK_K@Z
?PostCode@Monitor@AK@@YA?AW4AKRESULT@@W4ErrorCode@12@W4ErrorLevel@12@K_KK_N@Z
?PostEvent@SoundEngine@AK@@YAKK_KKP6AXW4AkCallbackType@@PEAUAkCallbackInfo@@@ZPEAXKPEAUAkExternalSourceInfo@@K@Z
?PostEvent@SoundEngine@AK@@YAKPEBD_KKP6AXW4AkCallbackType@@PEAUAkCallbackInfo@@@ZPEAXKPEAUAkExternalSourceInfo@@K@Z
?PostEvent@SoundEngine@AK@@YAKPEB_W_KKP6AXW4AkCallbackType@@PEAUAkCallbackInfo@@@ZPEAXKPEAUAkExternalSourceInfo@@K@Z
?PostMIDIOnEvent@SoundEngine@AK@@YA?AW4AKRESULT@@K_KPEAUAkMIDIPost@@G@Z
?PostString@Monitor@AK@@YA?AW4AKRESULT@@PEBDW4ErrorLevel@12@K_KK_N@Z
?PostString@Monitor@AK@@YA?AW4AKRESULT@@PEB_WW4ErrorLevel@12@K_KK_N@Z
?PostTrigger@SoundEngine@AK@@YA?AW4AKRESULT@@K_K@Z
?PostTrigger@SoundEngine@AK@@YA?AW4AKRESULT@@PEBD_K@Z
?PostTrigger@SoundEngine@AK@@YA?AW4AKRESULT@@PEB_W_K@Z
?PrepareBank@SoundEngine@AK@@YA?AW4AKRESULT@@W4PreparationType@12@KP6AXKPEBXW43@PEAX@Z3W4AkBankContent@12@@Z
?PrepareBank@SoundEngine@AK@@YA?AW4AKRESULT@@W4PreparationType@12@KW4AkBankContent@12@@Z
?PrepareBank@SoundEngine@AK@@YA?AW4AKRESULT@@W4PreparationType@12@PEBDP6AXKPEBXW43@PEAX@Z4W4AkBankContent@12@@Z
?PrepareBank@SoundEngine@AK@@YA?AW4AKRESULT@@W4PreparationType@12@PEBDW4AkBankContent@12@@Z
?PrepareBank@SoundEngine@AK@@YA?AW4AKRESULT@@W4PreparationType@12@PEB_WP6AXKPEBXW43@PEAX@Z4W4AkBankContent@12@@Z
?PrepareBank@SoundEngine@AK@@YA?AW4AKRESULT@@W4PreparationType@12@PEB_WW4AkBankContent@12@@Z
?PrepareEvent@SoundEngine@AK@@YA?AW4AKRESULT@@W4PreparationType@12@PEAKK@Z
?PrepareEvent@SoundEngine@AK@@YA?AW4AKRESULT@@W4PreparationType@12@PEAKKP6AXKPEBXW43@PEAX@Z4@Z
?PrepareEvent@SoundEngine@AK@@YA?AW4AKRESULT@@W4PreparationType@12@PEAPEBDK@Z
?PrepareEvent@SoundEngine@AK@@YA?AW4AKRESULT@@W4PreparationType@12@PEAPEBDKP6AXKPEBXW43@PEAX@Z4@Z
?PrepareEvent@SoundEngine@AK@@YA?AW4AKRESULT@@W4PreparationType@12@PEAPEB_WK@Z
?PrepareEvent@SoundEngine@AK@@YA?AW4AKRESULT@@W4PreparationType@12@PEAPEB_WKP6AXKPEBXW43@PEAX@Z4@Z
?PrepareGameSyncs@SoundEngine@AK@@YA?AW4AKRESULT@@W4PreparationType@12@W4AkGroupType@@KPEAKK@Z
?PrepareGameSyncs@SoundEngine@AK@@YA?AW4AKRESULT@@W4PreparationType@12@W4AkGroupType@@KPEAKKP6AXKPEBXW43@PEAX@Z5@Z
?PrepareGameSyncs@SoundEngine@AK@@YA?AW4AKRESULT@@W4PreparationType@12@W4AkGroupType@@PEBDPEAPEBDK@Z
?PrepareGameSyncs@SoundEngine@AK@@YA?AW4AKRESULT@@W4PreparationType@12@W4AkGroupType@@PEBDPEAPEBDKP6AXKPEBXW43@PEAX@Z6@Z
?PrepareGameSyncs@SoundEngine@AK@@YA?AW4AKRESULT@@W4PreparationType@12@W4AkGroupType@@PEB_WPEAPEB_WK@Z
?PrepareGameSyncs@SoundEngine@AK@@YA?AW4AKRESULT@@W4PreparationType@12@W4AkGroupType@@PEB_WPEAPEB_WKP6AXKPEBXW43@PEAX@Z6@Z
?QueryAudioObjectIDs@Query@SoundEngine@AK@@YA?AW4AKRESULT@@KAEAKPEAUAkObjectInfo@@@Z
?QueryAudioObjectIDs@Query@SoundEngine@AK@@YA?AW4AKRESULT@@PEBDAEAKPEAUAkObjectInfo@@@Z
?QueryAudioObjectIDs@Query@SoundEngine@AK@@YA?AW4AKRESULT@@PEB_WAEAKPEAUAkObjectInfo@@@Z
?QueryDiffractionPaths@SpatialAudio@AK@@YA?AW4AKRESULT@@_KAEAUAkVector@@1PEAUAkDiffractionPathInfo@@AEAK@Z
?QueryReflectionPaths@SpatialAudio@AK@@YA?AW4AKRESULT@@_KAEAUAkVector@@1PEAUAkReflectionPathInfo@@AEAK@Z
?QueryWetDiffraction@SpatialAudio@AK@@YA?AW4AKRESULT@@UAkSpatialAudioID@@AEAM@Z
?REG_ENTITY_MAILBOX@GmReturnVal@server@mobile@@2W4GmReturnVal_CallbackType@23@B
?RESET@OperIndexRequest@server@mobile@@2W4OperIndexRequest_OperType@23@B
?ReadBytes@ReadBytesMem@AK@@UEAA_NPEAXJAEAJ@Z
?ReadBytes@ReadBytesSkip@AK@@UEAA_NPEAXJAEAJ@Z
?Realloc@MemoryMgr@AK@@YAPEAXJPEAX_K@Z
?RedisStatusMessage_RedisStatus_IsValid@server@mobile@@YA_NH@Z
?RedisStatusMessage_RedisStatus_descriptor@server@mobile@@YAPEBVEnumDescriptor@protobuf@google@@XZ
?RedisStatus_ARRAYSIZE@RedisStatusMessage@server@mobile@@2HB
?RedisStatus_IsValid@RedisStatusMessage@server@mobile@@SA_NH@Z
?RedisStatus_MAX@RedisStatusMessage@server@mobile@@2W4RedisStatusMessage_RedisStatus@23@B
?RedisStatus_MIN@RedisStatusMessage@server@mobile@@2W4RedisStatusMessage_RedisStatus@23@B
?RedisStatus_Name@RedisStatusMessage@server@mobile@@SAAEBV?$basic_string@DU?$char_traits@D@std@@V?$allocator@D@2@@std@@W4RedisStatusMessage_RedisStatus@23@@Z
?RedisStatus_Parse@RedisStatusMessage@server@mobile@@SA_NAEBV?$basic_string@DU?$char_traits@D@std@@V?$allocator@D@2@@std@@PEAW4RedisStatusMessage_RedisStatus@23@@Z
?RedisStatus_descriptor@RedisStatusMessage@server@mobile@@SAPEBVEnumDescriptor@protobuf@google@@XZ
?RegisterAudioDeviceStatusCallback@SoundEngine@AK@@YA?AW4AKRESULT@@P6AXPEAVIAkGlobalPluginContext@2@KKW4AkAudioDeviceEvent@2@W43@@Z@Z
?RegisterBusMeteringCallback@SoundEngine@AK@@YA?AW4AKRESULT@@KP6AXPEAVIAkMetering@2@UAkChannelConfig@@W4AkMeteringFlags@@@Z2@Z
?RegisterBusVolumeCallback@SoundEngine@AK@@YA?AW4AKRESULT@@KP6AXPEAUAkSpeakerVolumeMatrixCallbackInfo@@@Z@Z
?RegisterCodec@SoundEngine@AK@@YA?AW4AKRESULT@@KKP6APEAVIAkSoftwareCodec@@PEAX@Z1@Z
?RegisterGameObj@SoundEngine@AK@@YA?AW4AKRESULT@@_K@Z
?RegisterGameObj@SoundEngine@AK@@YA?AW4AKRESULT@@_KPEBD@Z
?RegisterGlobalCallback@SoundEngine@AK@@YA?AW4AKRESULT@@P6AXPEAVIAkGlobalPluginContext@2@W4AkGlobalCallbackLocation@@PEAX@ZK2W4AkPluginType@@KK@Z
?RegisterListener@SpatialAudio@AK@@YA?AW4AKRESULT@@_K@Z
?RegisterPlugin@SoundEngine@AK@@YA?AW4AKRESULT@@W4AkPluginType@@KKP6APEAVIAkPlugin@2@PEAVIAkPluginMemAlloc@2@@ZP6APEAVIAkPluginParam@2@1@ZP6A?AW43@AEAKPEAUAkDeviceDescription@@@Z@Z
?RegisterPluginDLL@SoundEngine@AK@@YA?AW4AKRESULT@@PEB_W0@Z
?RegisterResourceMonitorCallback@SoundEngine@AK@@YA?AW4AKRESULT@@P6AXPEBUAkResourceMonitorDataSummary@@@Z@Z
?RemoveDefaultListener@SoundEngine@AK@@YA?AW4AKRESULT@@_K@Z
?RemoveGeometry@SpatialAudio@AK@@YA?AW4AKRESULT@@UAkSpatialAudioID@@@Z
?RemoveImageSource@SpatialAudio@AK@@YA?AW4AKRESULT@@KK_K@Z
?RemoveLanguageChangeObserver@StreamMgr@AK@@YAXPEAX@Z
?RemoveListener@SoundEngine@AK@@YA?AW4AKRESULT@@_K0@Z
?RemoveOutput@SoundEngine@AK@@YA?AW4AKRESULT@@_K@Z
?RemovePortal@SpatialAudio@AK@@YA?AW4AKRESULT@@UAkSpatialAudioID@@@Z
?RemoveRoom@SpatialAudio@AK@@YA?AW4AKRESULT@@UAkRoomID@@@Z
?RenderAudio@SoundEngine@AK@@YA?AW4AKRESULT@@_N@Z
?ReplaceOutput@SoundEngine@AK@@YA?AW4AKRESULT@@AEBUAkOutputSettings@@_KPEA_K@Z
?Reserve@WriteBytesCount@AK@@UEAA_NJ@Z
?Reserve@WriteBytesMem@AK@@UEAA_NJ@Z
?ResetListenersToDefault@SoundEngine@AK@@YA?AW4AKRESULT@@_K@Z
?ResetRTPCValue@SoundEngine@AK@@YA?AW4AKRESULT@@K_KJW4AkCurveInterpolation@@_N@Z
?ResetRTPCValue@SoundEngine@AK@@YA?AW4AKRESULT@@PEBD_KJW4AkCurveInterpolation@@_N@Z
?ResetRTPCValue@SoundEngine@AK@@YA?AW4AKRESULT@@PEB_W_KJW4AkCurveInterpolation@@_N@Z
?ResolveDialogueEvent@DynamicDialogue@SoundEngine@AK@@YAKKPEAKKKP6A_NKKPEAX@Z1@Z
?ResolveDialogueEvent@DynamicDialogue@SoundEngine@AK@@YAKPEBDPEAPEBDKKP6A_NKKPEAX@Z2@Z
?ResolveDialogueEvent@DynamicDialogue@SoundEngine@AK@@YAKPEB_WPEAPEB_WKKP6A_NKKPEAX@Z2@Z
?Resume@DynamicSequence@SoundEngine@AK@@YA?AW4AKRESULT@@KJW4AkCurveInterpolation@@@Z
?Seek@DynamicSequence@SoundEngine@AK@@YA?AW4AKRESULT@@KJ_N@Z
?Seek@DynamicSequence@SoundEngine@AK@@YA?AW4AKRESULT@@KM_N@Z
?SeekOnEvent@SoundEngine@AK@@YA?AW4AKRESULT@@K_KJ_NK@Z
?SeekOnEvent@SoundEngine@AK@@YA?AW4AKRESULT@@K_KM_NK@Z
?SeekOnEvent@SoundEngine@AK@@YA?AW4AKRESULT@@PEBD_KJ_NK@Z
?SeekOnEvent@SoundEngine@AK@@YA?AW4AKRESULT@@PEBD_KM_NK@Z
?SeekOnEvent@SoundEngine@AK@@YA?AW4AKRESULT@@PEB_W_KJ_NK@Z
?SeekOnEvent@SoundEngine@AK@@YA?AW4AKRESULT@@PEB_W_KM_NK@Z
?SendPluginCustomGameData@SoundEngine@AK@@YA?AW4AKRESULT@@K_KW4AkPluginType@@KKPEBXK@Z
?SerializeWithCachedSizes@ActiveCompress@server@mobile@@UEBAXPEAVCodedOutputStream@io@protobuf@google@@@Z
?SerializeWithCachedSizes@CallDBRequest@server@mobile@@UEBAXPEAVCodedOutputStream@io@protobuf@google@@@Z
?SerializeWithCachedSizes@CallDBResponse@server@mobile@@UEBAXPEAVCodedOutputStream@io@protobuf@google@@@Z
?SerializeWithCachedSizes@CallbackId@server@mobile@@UEBAXPEAVCodedOutputStream@io@protobuf@google@@@Z
?SerializeWithCachedSizes@ClientBindMsg@server@mobile@@UEBAXPEAVCodedOutputStream@io@protobuf@google@@@Z
?SerializeWithCachedSizes@ClientInfo@server@mobile@@UEBAXPEAVCodedOutputStream@io@protobuf@google@@@Z
?SerializeWithCachedSizes@CountDocReply@server@mobile@@UEBAXPEAVCodedOutputStream@io@protobuf@google@@@Z
?SerializeWithCachedSizes@CountDocRequest@server@mobile@@UEBAXPEAVCodedOutputStream@io@protobuf@google@@@Z
?SerializeWithCachedSizes@CreateCollectionReply@server@mobile@@UEBAXPEAVCodedOutputStream@io@protobuf@google@@@Z
?SerializeWithCachedSizes@CreateCollectionRequest@server@mobile@@UEBAXPEAVCodedOutputStream@io@protobuf@google@@@Z
?SerializeWithCachedSizes@CtrlType@server@mobile@@UEBAXPEAVCodedOutputStream@io@protobuf@google@@@Z
?SerializeWithCachedSizes@CustomServiceInfo@server@mobile@@UEBAXPEAVCodedOutputStream@io@protobuf@google@@@Z
?SerializeWithCachedSizes@CustomServiceMsg@server@mobile@@UEBAXPEAVCodedOutputStream@io@protobuf@google@@@Z
?SerializeWithCachedSizes@DbServerInfo@server@mobile@@UEBAXPEAVCodedOutputStream@io@protobuf@google@@@Z
?SerializeWithCachedSizes@DbStatusMessage@server@mobile@@UEBAXPEAVCodedOutputStream@io@protobuf@google@@@Z
?SerializeWithCachedSizes@DeleteDocReply@server@mobile@@UEBAXPEAVCodedOutputStream@io@protobuf@google@@@Z
?SerializeWithCachedSizes@DeleteDocRequest@server@mobile@@UEBAXPEAVCodedOutputStream@io@protobuf@google@@@Z
?SerializeWithCachedSizes@EncryptString@server@mobile@@UEBAXPEAVCodedOutputStream@io@protobuf@google@@@Z
?SerializeWithCachedSizes@EntityInfoHeader@server@mobile@@UEBAXPEAVCodedOutputStream@io@protobuf@google@@@Z
?SerializeWithCachedSizes@FilterDataObj@server@mobile@@UEBAXPEAVCodedOutputStream@io@protobuf@google@@@Z
?SerializeWithCachedSizes@FilterUserDatas@server@mobile@@UEBAXPEAVCodedOutputStream@io@protobuf@google@@@Z
?SerializeWithCachedSizes@FindAndModifyDocReply@server@mobile@@UEBAXPEAVCodedOutputStream@io@protobuf@google@@@Z
?SerializeWithCachedSizes@FindAndModifyDocRequest@server@mobile@@UEBAXPEAVCodedOutputStream@io@protobuf@google@@@Z
?SerializeWithCachedSizes@FindDocReply@server@mobile@@UEBAXPEAVCodedOutputStream@io@protobuf@google@@@Z
?SerializeWithCachedSizes@FindDocRequest@server@mobile@@UEBAXPEAVCodedOutputStream@io@protobuf@google@@@Z
?SerializeWithCachedSizes@ForwardMessageHeader@server@mobile@@UEBAXPEAVCodedOutputStream@io@protobuf@google@@@Z
?SerializeWithCachedSizes@GameLoad@server@mobile@@UEBAXPEAVCodedOutputStream@io@protobuf@google@@@Z
?SerializeWithCachedSizes@GameServerInfos@server@mobile@@UEBAXPEAVCodedOutputStream@io@protobuf@google@@@Z
?SerializeWithCachedSizes@Gate2GameReturnVal@server@mobile@@UEBAXPEAVCodedOutputStream@io@protobuf@google@@@Z
?SerializeWithCachedSizes@GateInfo@server@mobile@@UEBAXPEAVCodedOutputStream@io@protobuf@google@@@Z
?SerializeWithCachedSizes@GateMailbox@server@mobile@@UEBAXPEAVCodedOutputStream@io@protobuf@google@@@Z
?SerializeWithCachedSizes@GateMessage@server@mobile@@UEBAXPEAVCodedOutputStream@io@protobuf@google@@@Z
?SerializeWithCachedSizes@GateReturnVal@server@mobile@@UEBAXPEAVCodedOutputStream@io@protobuf@google@@@Z
?SerializeWithCachedSizes@GlobalData@server@mobile@@UEBAXPEAVCodedOutputStream@io@protobuf@google@@@Z
?SerializeWithCachedSizes@GlobalEntityRegMsg@server@mobile@@UEBAXPEAVCodedOutputStream@io@protobuf@google@@@Z
?SerializeWithCachedSizes@GlobalMessage@server@mobile@@UEBAXPEAVCodedOutputStream@io@protobuf@google@@@Z
?SerializeWithCachedSizes@GmReturnVal@server@mobile@@UEBAXPEAVCodedOutputStream@io@protobuf@google@@@Z
?SerializeWithCachedSizes@InsertDocReply@server@mobile@@UEBAXPEAVCodedOutputStream@io@protobuf@google@@@Z
?SerializeWithCachedSizes@InsertDocRequest@server@mobile@@UEBAXPEAVCodedOutputStream@io@protobuf@google@@@Z
?SerializeWithCachedSizes@LocalIdMessage@server@mobile@@UEBAXPEAVCodedOutputStream@io@protobuf@google@@@Z
?SerializeWithCachedSizes@MessageIp@server@mobile@@UEBAXPEAVCodedOutputStream@io@protobuf@google@@@Z
?SerializeWithCachedSizes@OperIndexReply@server@mobile@@UEBAXPEAVCodedOutputStream@io@protobuf@google@@@Z
?SerializeWithCachedSizes@OperIndexRequest@server@mobile@@UEBAXPEAVCodedOutputStream@io@protobuf@google@@@Z
?SerializeWithCachedSizes@RealEntityCreateInfo@server@mobile@@UEBAXPEAVCodedOutputStream@io@protobuf@google@@@Z
?SerializeWithCachedSizes@RedisExecRequest@server@mobile@@UEBAXPEAVCodedOutputStream@io@protobuf@google@@@Z
?SerializeWithCachedSizes@RedisExecResponse@server@mobile@@UEBAXPEAVCodedOutputStream@io@protobuf@google@@@Z
?SerializeWithCachedSizes@RedisMultiExecRequest@server@mobile@@UEBAXPEAVCodedOutputStream@io@protobuf@google@@@Z
?SerializeWithCachedSizes@RedisMultiExecResponse@server@mobile@@UEBAXPEAVCodedOutputStream@io@protobuf@google@@@Z
?SerializeWithCachedSizes@RedisPiplineExecRequest@server@mobile@@UEBAXPEAVCodedOutputStream@io@protobuf@google@@@Z
?SerializeWithCachedSizes@RedisPiplineExecResponse@server@mobile@@UEBAXPEAVCodedOutputStream@io@protobuf@google@@@Z
?SerializeWithCachedSizes@RedisStatusMessage@server@mobile@@UEBAXPEAVCodedOutputStream@io@protobuf@google@@@Z
?SerializeWithCachedSizes@RegistMd5IndexMsg@server@mobile@@UEBAXPEAVCodedOutputStream@io@protobuf@google@@@Z
?SerializeWithCachedSizes@RunProcedureReply@server@mobile@@UEBAXPEAVCodedOutputStream@io@protobuf@google@@@Z
?SerializeWithCachedSizes@RunProcedureRequest@server@mobile@@UEBAXPEAVCodedOutputStream@io@protobuf@google@@@Z
?SerializeWithCachedSizes@Script@server@mobile@@UEBAXPEAVCodedOutputStream@io@protobuf@google@@@Z
?SerializeWithCachedSizes@ServerMethod@server@mobile@@UEBAXPEAVCodedOutputStream@io@protobuf@google@@@Z
?SerializeWithCachedSizes@ServiceInfos@server@mobile@@UEBAXPEAVCodedOutputStream@io@protobuf@google@@@Z
?SerializeWithCachedSizes@SessionIsp@server@mobile@@UEBAXPEAVCodedOutputStream@io@protobuf@google@@@Z
?SerializeWithCachedSizes@SessionKey@server@mobile@@UEBAXPEAVCodedOutputStream@io@protobuf@google@@@Z
?SerializeWithCachedSizes@SessionSeed@server@mobile@@UEBAXPEAVCodedOutputStream@io@protobuf@google@@@Z
?SerializeWithCachedSizes@SoulBindMsg@server@mobile@@UEBAXPEAVCodedOutputStream@io@protobuf@google@@@Z
?SerializeWithCachedSizes@SoulUnbindMsg@server@mobile@@UEBAXPEAVCodedOutputStream@io@protobuf@google@@@Z
?SerializeWithCachedSizes@UpdateDocReply@server@mobile@@UEBAXPEAVCodedOutputStream@io@protobuf@google@@@Z
?SerializeWithCachedSizes@UpdateDocRequest@server@mobile@@UEBAXPEAVCodedOutputStream@io@protobuf@google@@@Z
?SerializeWithCachedSizesToArray@ActiveCompress@server@mobile@@UEBAPEAEPEAE@Z
?SerializeWithCachedSizesToArray@CallDBRequest@server@mobile@@UEBAPEAEPEAE@Z
?SerializeWithCachedSizesToArray@CallDBResponse@server@mobile@@UEBAPEAEPEAE@Z
?SerializeWithCachedSizesToArray@CallbackId@server@mobile@@UEBAPEAEPEAE@Z
?SerializeWithCachedSizesToArray@ClientBindMsg@server@mobile@@UEBAPEAEPEAE@Z
?SerializeWithCachedSizesToArray@ClientInfo@server@mobile@@UEBAPEAEPEAE@Z
?SerializeWithCachedSizesToArray@CountDocReply@server@mobile@@UEBAPEAEPEAE@Z
?SerializeWithCachedSizesToArray@CountDocRequest@server@mobile@@UEBAPEAEPEAE@Z
?SerializeWithCachedSizesToArray@CreateCollectionReply@server@mobile@@UEBAPEAEPEAE@Z
?SerializeWithCachedSizesToArray@CreateCollectionRequest@server@mobile@@UEBAPEAEPEAE@Z
?SerializeWithCachedSizesToArray@CtrlType@server@mobile@@UEBAPEAEPEAE@Z
?SerializeWithCachedSizesToArray@CustomServiceInfo@server@mobile@@UEBAPEAEPEAE@Z
?SerializeWithCachedSizesToArray@CustomServiceMsg@server@mobile@@UEBAPEAEPEAE@Z
?SerializeWithCachedSizesToArray@DbServerInfo@server@mobile@@UEBAPEAEPEAE@Z
?SerializeWithCachedSizesToArray@DbStatusMessage@server@mobile@@UEBAPEAEPEAE@Z
?SerializeWithCachedSizesToArray@DeleteDocReply@server@mobile@@UEBAPEAEPEAE@Z
?SerializeWithCachedSizesToArray@DeleteDocRequest@server@mobile@@UEBAPEAEPEAE@Z
?SerializeWithCachedSizesToArray@EncryptString@server@mobile@@UEBAPEAEPEAE@Z
?SerializeWithCachedSizesToArray@EntityInfoHeader@server@mobile@@UEBAPEAEPEAE@Z
?SerializeWithCachedSizesToArray@FilterDataObj@server@mobile@@UEBAPEAEPEAE@Z
?SerializeWithCachedSizesToArray@FilterUserDatas@server@mobile@@UEBAPEAEPEAE@Z
?SerializeWithCachedSizesToArray@FindAndModifyDocReply@server@mobile@@UEBAPEAEPEAE@Z
?SerializeWithCachedSizesToArray@FindAndModifyDocRequest@server@mobile@@UEBAPEAEPEAE@Z
?SerializeWithCachedSizesToArray@FindDocReply@server@mobile@@UEBAPEAEPEAE@Z
?SerializeWithCachedSizesToArray@FindDocRequest@server@mobile@@UEBAPEAEPEAE@Z
?SerializeWithCachedSizesToArray@ForwardMessageHeader@server@mobile@@UEBAPEAEPEAE@Z
?SerializeWithCachedSizesToArray@GameLoad@server@mobile@@UEBAPEAEPEAE@Z
?SerializeWithCachedSizesToArray@GameServerInfos@server@mobile@@UEBAPEAEPEAE@Z
?SerializeWithCachedSizesToArray@Gate2GameReturnVal@server@mobile@@UEBAPEAEPEAE@Z
?SerializeWithCachedSizesToArray@GateInfo@server@mobile@@UEBAPEAEPEAE@Z
?SerializeWithCachedSizesToArray@GateMailbox@server@mobile@@UEBAPEAEPEAE@Z
?SerializeWithCachedSizesToArray@GateMessage@server@mobile@@UEBAPEAEPEAE@Z
?SerializeWithCachedSizesToArray@GateReturnVal@server@mobile@@UEBAPEAEPEAE@Z
?SerializeWithCachedSizesToArray@GlobalData@server@mobile@@UEBAPEAEPEAE@Z
?SerializeWithCachedSizesToArray@GlobalEntityRegMsg@server@mobile@@UEBAPEAEPEAE@Z
?SerializeWithCachedSizesToArray@GlobalMessage@server@mobile@@UEBAPEAEPEAE@Z
?SerializeWithCachedSizesToArray@GmReturnVal@server@mobile@@UEBAPEAEPEAE@Z
?SerializeWithCachedSizesToArray@InsertDocReply@server@mobile@@UEBAPEAEPEAE@Z
?SerializeWithCachedSizesToArray@InsertDocRequest@server@mobile@@UEBAPEAEPEAE@Z
?SerializeWithCachedSizesToArray@LocalIdMessage@server@mobile@@UEBAPEAEPEAE@Z
?SerializeWithCachedSizesToArray@MessageIp@server@mobile@@UEBAPEAEPEAE@Z
?SerializeWithCachedSizesToArray@OperIndexReply@server@mobile@@UEBAPEAEPEAE@Z
?SerializeWithCachedSizesToArray@OperIndexRequest@server@mobile@@UEBAPEAEPEAE@Z
?SerializeWithCachedSizesToArray@RealEntityCreateInfo@server@mobile@@UEBAPEAEPEAE@Z
?SerializeWithCachedSizesToArray@RedisExecRequest@server@mobile@@UEBAPEAEPEAE@Z
?SerializeWithCachedSizesToArray@RedisExecResponse@server@mobile@@UEBAPEAEPEAE@Z
?SerializeWithCachedSizesToArray@RedisMultiExecRequest@server@mobile@@UEBAPEAEPEAE@Z
?SerializeWithCachedSizesToArray@RedisMultiExecResponse@server@mobile@@UEBAPEAEPEAE@Z
?SerializeWithCachedSizesToArray@RedisPiplineExecRequest@server@mobile@@UEBAPEAEPEAE@Z
?SerializeWithCachedSizesToArray@RedisPiplineExecResponse@server@mobile@@UEBAPEAEPEAE@Z
?SerializeWithCachedSizesToArray@RedisStatusMessage@server@mobile@@UEBAPEAEPEAE@Z
?SerializeWithCachedSizesToArray@RegistMd5IndexMsg@server@mobile@@UEBAPEAEPEAE@Z
?SerializeWithCachedSizesToArray@RunProcedureReply@server@mobile@@UEBAPEAEPEAE@Z
?SerializeWithCachedSizesToArray@RunProcedureRequest@server@mobile@@UEBAPEAEPEAE@Z
?SerializeWithCachedSizesToArray@Script@server@mobile@@UEBAPEAEPEAE@Z
?SerializeWithCachedSizesToArray@ServerMethod@server@mobile@@UEBAPEAEPEAE@Z
?SerializeWithCachedSizesToArray@ServiceInfos@server@mobile@@UEBAPEAEPEAE@Z
?SerializeWithCachedSizesToArray@SessionIsp@server@mobile@@UEBAPEAEPEAE@Z
?SerializeWithCachedSizesToArray@SessionKey@server@mobile@@UEBAPEAEPEAE@Z
?SerializeWithCachedSizesToArray@SessionSeed@server@mobile@@UEBAPEAEPEAE@Z
?SerializeWithCachedSizesToArray@SoulBindMsg@server@mobile@@UEBAPEAEPEAE@Z
?SerializeWithCachedSizesToArray@SoulUnbindMsg@server@mobile@@UEBAPEAEPEAE@Z
?SerializeWithCachedSizesToArray@UpdateDocReply@server@mobile@@UEBAPEAEPEAE@Z
?SerializeWithCachedSizesToArray@UpdateDocRequest@server@mobile@@UEBAPEAEPEAE@Z
?ServerType_ARRAYSIZE@EntityInfoHeader@server@mobile@@2HB
?ServerType_IsValid@EntityInfoHeader@server@mobile@@SA_NH@Z
?ServerType_MAX@EntityInfoHeader@server@mobile@@2W4EntityInfoHeader_ServerType@23@B
?ServerType_MIN@EntityInfoHeader@server@mobile@@2W4EntityInfoHeader_ServerType@23@B
?ServerType_Name@EntityInfoHeader@server@mobile@@SAAEBV?$basic_string@DU?$char_traits@D@std@@V?$allocator@D@2@@std@@W4EntityInfoHeader_ServerType@23@@Z
?ServerType_Parse@EntityInfoHeader@server@mobile@@SA_NAEBV?$basic_string@DU?$char_traits@D@std@@V?$allocator@D@2@@std@@PEAW4EntityInfoHeader_ServerType@23@@Z
?ServerType_descriptor@EntityInfoHeader@server@mobile@@SAPEBVEnumDescriptor@protobuf@google@@XZ
?SetActorMixerEffect@SoundEngine@AK@@YA?AW4AKRESULT@@KKK@Z
?SetBankLoadIOSettings@SoundEngine@AK@@YA?AW4AKRESULT@@MD@Z
?SetBusConfig@SoundEngine@AK@@YA?AW4AKRESULT@@KUAkChannelConfig@@@Z
?SetBusConfig@SoundEngine@AK@@YA?AW4AKRESULT@@PEBDUAkChannelConfig@@@Z
?SetBusConfig@SoundEngine@AK@@YA?AW4AKRESULT@@PEB_WUAkChannelConfig@@@Z
?SetBusDevice@SoundEngine@AK@@YA?AW4AKRESULT@@KK@Z
?SetBusDevice@SoundEngine@AK@@YA?AW4AKRESULT@@PEBD0@Z
?SetBusDevice@SoundEngine@AK@@YA?AW4AKRESULT@@PEB_W0@Z
?SetBusEffect@SoundEngine@AK@@YA?AW4AKRESULT@@KKK@Z
?SetBusEffect@SoundEngine@AK@@YA?AW4AKRESULT@@PEBDKK@Z
?SetBusEffect@SoundEngine@AK@@YA?AW4AKRESULT@@PEB_WKK@Z
?SetCachedSize@ActiveCompress@server@mobile@@EEBAXH@Z
?SetCachedSize@CallDBRequest@server@mobile@@EEBAXH@Z
?SetCachedSize@CallDBResponse@server@mobile@@EEBAXH@Z
?SetCachedSize@CallbackId@server@mobile@@EEBAXH@Z
?SetCachedSize@ClientBindMsg@server@mobile@@EEBAXH@Z
?SetCachedSize@ClientInfo@server@mobile@@EEBAXH@Z
?SetCachedSize@CountDocReply@server@mobile@@EEBAXH@Z
?SetCachedSize@CountDocRequest@server@mobile@@EEBAXH@Z
?SetCachedSize@CreateCollectionReply@server@mobile@@EEBAXH@Z
?SetCachedSize@CreateCollectionRequest@server@mobile@@EEBAXH@Z
?SetCachedSize@CtrlType@server@mobile@@EEBAXH@Z
?SetCachedSize@CustomServiceInfo@server@mobile@@EEBAXH@Z
?SetCachedSize@CustomServiceMsg@server@mobile@@EEBAXH@Z
?SetCachedSize@DbServerInfo@server@mobile@@EEBAXH@Z
?SetCachedSize@DbStatusMessage@server@mobile@@EEBAXH@Z
?SetCachedSize@DeleteDocReply@server@mobile@@EEBAXH@Z
?SetCachedSize@DeleteDocRequest@server@mobile@@EEBAXH@Z
?SetCachedSize@EncryptString@server@mobile@@EEBAXH@Z
?SetCachedSize@EntityInfoHeader@server@mobile@@EEBAXH@Z
?SetCachedSize@FilterDataObj@server@mobile@@EEBAXH@Z
?SetCachedSize@FilterUserDatas@server@mobile@@EEBAXH@Z
?SetCachedSize@FindAndModifyDocReply@server@mobile@@EEBAXH@Z
?SetCachedSize@FindAndModifyDocRequest@server@mobile@@EEBAXH@Z
?SetCachedSize@FindDocReply@server@mobile@@EEBAXH@Z
?SetCachedSize@FindDocRequest@server@mobile@@EEBAXH@Z
?SetCachedSize@ForwardMessageHeader@server@mobile@@EEBAXH@Z
?SetCachedSize@GameLoad@server@mobile@@EEBAXH@Z
?SetCachedSize@GameServerInfos@server@mobile@@EEBAXH@Z
?SetCachedSize@Gate2GameReturnVal@server@mobile@@EEBAXH@Z
?SetCachedSize@GateInfo@server@mobile@@EEBAXH@Z
?SetCachedSize@GateMailbox@server@mobile@@EEBAXH@Z
?SetCachedSize@GateMessage@server@mobile@@EEBAXH@Z
?SetCachedSize@GateReturnVal@server@mobile@@EEBAXH@Z
?SetCachedSize@GlobalData@server@mobile@@EEBAXH@Z
?SetCachedSize@GlobalEntityRegMsg@server@mobile@@EEBAXH@Z
?SetCachedSize@GlobalMessage@server@mobile@@EEBAXH@Z
?SetCachedSize@GmReturnVal@server@mobile@@EEBAXH@Z
?SetCachedSize@InsertDocReply@server@mobile@@EEBAXH@Z
?SetCachedSize@InsertDocRequest@server@mobile@@EEBAXH@Z
?SetCachedSize@LocalIdMessage@server@mobile@@EEBAXH@Z
?SetCachedSize@MessageIp@server@mobile@@EEBAXH@Z
?SetCachedSize@OperIndexReply@server@mobile@@EEBAXH@Z
?SetCachedSize@OperIndexRequest@server@mobile@@EEBAXH@Z
?SetCachedSize@RealEntityCreateInfo@server@mobile@@EEBAXH@Z
?SetCachedSize@RedisExecRequest@server@mobile@@EEBAXH@Z
?SetCachedSize@RedisExecResponse@server@mobile@@EEBAXH@Z
?SetCachedSize@RedisMultiExecRequest@server@mobile@@EEBAXH@Z
?SetCachedSize@RedisMultiExecResponse@server@mobile@@EEBAXH@Z
?SetCachedSize@RedisPiplineExecRequest@server@mobile@@EEBAXH@Z
?SetCachedSize@RedisPiplineExecResponse@server@mobile@@EEBAXH@Z
?SetCachedSize@RedisStatusMessage@server@mobile@@EEBAXH@Z
?SetCachedSize@RegistMd5IndexMsg@server@mobile@@EEBAXH@Z
?SetCachedSize@RunProcedureReply@server@mobile@@EEBAXH@Z
?SetCachedSize@RunProcedureRequest@server@mobile@@EEBAXH@Z
?SetCachedSize@Script@server@mobile@@EEBAXH@Z
?SetCachedSize@ServerMethod@server@mobile@@EEBAXH@Z
?SetCachedSize@ServiceInfos@server@mobile@@EEBAXH@Z
?SetCachedSize@SessionIsp@server@mobile@@EEBAXH@Z
?SetCachedSize@SessionKey@server@mobile@@EEBAXH@Z
?SetCachedSize@SessionSeed@server@mobile@@EEBAXH@Z
?SetCachedSize@SoulBindMsg@server@mobile@@EEBAXH@Z
?SetCachedSize@SoulUnbindMsg@server@mobile@@EEBAXH@Z
?SetCachedSize@UpdateDocReply@server@mobile@@EEBAXH@Z
?SetCachedSize@UpdateDocRequest@server@mobile@@EEBAXH@Z
?SetContainerHistory@SoundEngine@AK@@YA?AW4AKRESULT@@PEAVIReadBytes@2@@Z
?SetCount@WriteBytesCount@AK@@UEAAXJ@Z
?SetCount@WriteBytesMem@AK@@UEAAXJ@Z
?SetCurrentLanguage@StreamMgr@AK@@YA?AW4AKRESULT@@PEB_W@Z
?SetDefaultListeners@SoundEngine@AK@@YA?AW4AKRESULT@@PEB_KK@Z
?SetEarlyReflectionsAuxSend@SpatialAudio@AK@@YA?AW4AKRESULT@@_KK@Z
?SetEarlyReflectionsVolume@SpatialAudio@AK@@YA?AW4AKRESULT@@_KM@Z
?SetFileLocationResolver@StreamMgr@AK@@YAXPEAVIAkFileLocationResolver@12@@Z
?SetGameObjectAuxSendValues@SoundEngine@AK@@YA?AW4AKRESULT@@_KPEAUAkAuxSendValue@@K@Z
?SetGameObjectInRoom@SpatialAudio@AK@@YA?AW4AKRESULT@@_KUAkRoomID@@@Z
?SetGameObjectOutputBusVolume@SoundEngine@AK@@YA?AW4AKRESULT@@_K0M@Z
?SetGeometry@SpatialAudio@AK@@YA?AW4AKRESULT@@UAkSpatialAudioID@@AEBUAkGeometryParams@@@Z
?SetImageSource@SpatialAudio@AK@@YA?AW4AKRESULT@@KAEBUAkImageSourceSettings@@KUAkRoomID@@_K@Z
?SetListenerSpatialization@SoundEngine@AK@@YA?AW4AKRESULT@@_K_NUAkChannelConfig@@PEAM@Z
?SetListeners@SoundEngine@AK@@YA?AW4AKRESULT@@_KPEB_KK@Z
?SetLocalOutput@Monitor@AK@@YA?AW4AKRESULT@@KP6AXW4ErrorCode@12@PEB_WW4ErrorLevel@12@K_K@Z@Z
?SetMaxNumVoicesLimit@SoundEngine@AK@@YA?AW4AKRESULT@@G@Z
?SetMedia@SoundEngine@AK@@YA?AW4AKRESULT@@PEAUAkSourceSettings@@K@Z
?SetMemPool@WriteBytesMem@AK@@QEAAXJ@Z
?SetMixer@SoundEngine@AK@@YA?AW4AKRESULT@@KK@Z
?SetMixer@SoundEngine@AK@@YA?AW4AKRESULT@@PEBDK@Z
?SetMixer@SoundEngine@AK@@YA?AW4AKRESULT@@PEB_WK@Z
?SetMultipleObstructionAndOcclusion@SoundEngine@AK@@YA?AW4AKRESULT@@_K0PEAUAkObstructionOcclusionValues@@K@Z
?SetMultiplePositions@SoundEngine@AK@@YA?AW4AKRESULT@@_KPEBUAkChannelEmitter@@GW4MultiPositionType@12@@Z
?SetMultiplePositions@SoundEngine@AK@@YA?AW4AKRESULT@@_KPEBVAkTransform@@GW4MultiPositionType@12@@Z
?SetNumberOfPrimaryRays@SpatialAudio@AK@@YA?AW4AKRESULT@@K@Z
?SetObjectObstructionAndOcclusion@SoundEngine@AK@@YA?AW4AKRESULT@@_K0MM@Z
?SetOutputVolume@SoundEngine@AK@@YA?AW4AKRESULT@@_KM@Z
?SetPanningRule@SoundEngine@AK@@YA?AW4AKRESULT@@W4AkPanningRule@@_K@Z
?SetPortal@SpatialAudio@AK@@YA?AW4AKRESULT@@UAkSpatialAudioID@@AEBUAkPortalParams@@@Z
?SetPortalObstructionAndOcclusion@SpatialAudio@AK@@YA?AW4AKRESULT@@UAkSpatialAudioID@@MM@Z
?SetPosition@SoundEngine@AK@@YA?AW4AKRESULT@@_KAEBVAkTransform@@@Z
?SetPositionInternal@SoundEngine@AK@@YA?AW4AKRESULT@@_KAEBVAkTransform@@@Z
?SetRTPCInternal@CAkRTPCMgr@@QEAA?AW4AKRESULT@@KMAEBVAkRTPCKey@@AEAUTransParamsBase@@W4AkValueMeaning@@_N@Z
?SetRTPCInternal@CAkRTPCMgr@@QEAA?AW4AKRESULT@@KMPEAVCAkRegisteredObj@@KAEAUTransParamsBase@@W4AkValueMeaning@@@Z
?SetRTPCValue@SoundEngine@AK@@YA?AW4AKRESULT@@KM_KJW4AkCurveInterpolation@@_N@Z
?SetRTPCValue@SoundEngine@AK@@YA?AW4AKRESULT@@PEBDM_KJW4AkCurveInterpolation@@_N@Z
?SetRTPCValue@SoundEngine@AK@@YA?AW4AKRESULT@@PEB_WM_KJW4AkCurveInterpolation@@_N@Z
?SetRTPCValueByPlayingID@SoundEngine@AK@@YA?AW4AKRESULT@@KMKJW4AkCurveInterpolation@@_N@Z
?SetRTPCValueByPlayingID@SoundEngine@AK@@YA?AW4AKRESULT@@PEBDMKJW4AkCurveInterpolation@@_N@Z
?SetRTPCValueByPlayingID@SoundEngine@AK@@YA?AW4AKRESULT@@PEB_WMKJW4AkCurveInterpolation@@_N@Z
?SetRandomSeed@SoundEngine@AK@@YAXK@Z
?SetReflectionsOrder@SpatialAudio@AK@@YA?AW4AKRESULT@@K_N@Z
?SetRoom@SpatialAudio@AK@@YA?AW4AKRESULT@@UAkRoomID@@AEBUAkRoomParams@@@Z
?SetScalingFactor@SoundEngine@AK@@YA?AW4AKRESULT@@_KM@Z
?SetSpeakerAngles@SoundEngine@AK@@YA?AW4AKRESULT@@PEBMKM_K@Z
?SetState@SoundEngine@AK@@YA?AW4AKRESULT@@KK@Z
?SetState@SoundEngine@AK@@YA?AW4AKRESULT@@PEBD0@Z
?SetState@SoundEngine@AK@@YA?AW4AKRESULT@@PEB_W0@Z
?SetSwitch@SoundEngine@AK@@YA?AW4AKRESULT@@KK_K@Z
?SetSwitch@SoundEngine@AK@@YA?AW4AKRESULT@@PEBD0_K@Z
?SetSwitch@SoundEngine@AK@@YA?AW4AKRESULT@@PEB_W0_K@Z
?SetVolumeThreshold@SoundEngine@AK@@YA?AW4AKRESULT@@M@Z
?SetupCrashHunter@client@neox@@YAXXZ
?SharedCtor@ActiveCompress@server@mobile@@AEAAXXZ
?SharedCtor@CallDBRequest@server@mobile@@AEAAXXZ
?SharedCtor@CallDBResponse@server@mobile@@AEAAXXZ
?SharedCtor@CallbackId@server@mobile@@AEAAXXZ
?SharedCtor@ClientBindMsg@server@mobile@@AEAAXXZ
?SharedCtor@ClientInfo@server@mobile@@AEAAXXZ
?SharedCtor@CountDocReply@server@mobile@@AEAAXXZ
?SharedCtor@CountDocRequest@server@mobile@@AEAAXXZ
?SharedCtor@CreateCollectionReply@server@mobile@@AEAAXXZ
?SharedCtor@CreateCollectionRequest@server@mobile@@AEAAXXZ
?SharedCtor@CtrlType@server@mobile@@AEAAXXZ
?SharedCtor@CustomServiceInfo@server@mobile@@AEAAXXZ
?SharedCtor@CustomServiceMsg@server@mobile@@AEAAXXZ
?SharedCtor@DbServerInfo@server@mobile@@AEAAXXZ
?SharedCtor@DbStatusMessage@server@mobile@@AEAAXXZ
?SharedCtor@DeleteDocReply@server@mobile@@AEAAXXZ
?SharedCtor@DeleteDocRequest@server@mobile@@AEAAXXZ
?SharedCtor@EncryptString@server@mobile@@AEAAXXZ
?SharedCtor@EntityInfoHeader@server@mobile@@AEAAXXZ
?SharedCtor@FilterDataObj@server@mobile@@AEAAXXZ
?SharedCtor@FilterUserDatas@server@mobile@@AEAAXXZ
?SharedCtor@FindAndModifyDocReply@server@mobile@@AEAAXXZ
?SharedCtor@FindAndModifyDocRequest@server@mobile@@AEAAXXZ
?SharedCtor@FindDocReply@server@mobile@@AEAAXXZ
?SharedCtor@FindDocRequest@server@mobile@@AEAAXXZ
?SharedCtor@ForwardMessageHeader@server@mobile@@AEAAXXZ
?SharedCtor@GameLoad@server@mobile@@AEAAXXZ
?SharedCtor@GameServerInfos@server@mobile@@AEAAXXZ
?SharedCtor@Gate2GameReturnVal@server@mobile@@AEAAXXZ
?SharedCtor@GateInfo@server@mobile@@AEAAXXZ
?SharedCtor@GateMailbox@server@mobile@@AEAAXXZ
?SharedCtor@GateMessage@server@mobile@@AEAAXXZ
?SharedCtor@GateReturnVal@server@mobile@@AEAAXXZ
?SharedCtor@GlobalData@server@mobile@@AEAAXXZ
?SharedCtor@GlobalEntityRegMsg@server@mobile@@AEAAXXZ
?SharedCtor@GlobalMessage@server@mobile@@AEAAXXZ
?SharedCtor@GmReturnVal@server@mobile@@AEAAXXZ
?SharedCtor@InsertDocReply@server@mobile@@AEAAXXZ
?SharedCtor@InsertDocRequest@server@mobile@@AEAAXXZ
?SharedCtor@LocalIdMessage@server@mobile@@AEAAXXZ
?SharedCtor@MessageIp@server@mobile@@AEAAXXZ
?SharedCtor@OperIndexReply@server@mobile@@AEAAXXZ
?SharedCtor@OperIndexRequest@server@mobile@@AEAAXXZ
?SharedCtor@RealEntityCreateInfo@server@mobile@@AEAAXXZ
?SharedCtor@RedisExecRequest@server@mobile@@AEAAXXZ
?SharedCtor@RedisExecResponse@server@mobile@@AEAAXXZ
?SharedCtor@RedisMultiExecRequest@server@mobile@@AEAAXXZ
?SharedCtor@RedisMultiExecResponse@server@mobile@@AEAAXXZ
?SharedCtor@RedisPiplineExecRequest@server@mobile@@AEAAXXZ
?SharedCtor@RedisPiplineExecResponse@server@mobile@@AEAAXXZ
?SharedCtor@RedisStatusMessage@server@mobile@@AEAAXXZ
?SharedCtor@RegistMd5IndexMsg@server@mobile@@AEAAXXZ
?SharedCtor@RunProcedureReply@server@mobile@@AEAAXXZ
?SharedCtor@RunProcedureRequest@server@mobile@@AEAAXXZ
?SharedCtor@Script@server@mobile@@AEAAXXZ
?SharedCtor@ServerMethod@server@mobile@@AEAAXXZ
?SharedCtor@ServiceInfos@server@mobile@@AEAAXXZ
?SharedCtor@SessionIsp@server@mobile@@AEAAXXZ
?SharedCtor@SessionKey@server@mobile@@AEAAXXZ
?SharedCtor@SessionSeed@server@mobile@@AEAAXXZ
?SharedCtor@SoulBindMsg@server@mobile@@AEAAXXZ
?SharedCtor@SoulUnbindMsg@server@mobile@@AEAAXXZ
?SharedCtor@UpdateDocReply@server@mobile@@AEAAXXZ
?SharedCtor@UpdateDocRequest@server@mobile@@AEAAXXZ
?SharedDtor@ActiveCompress@server@mobile@@AEAAXXZ
?SharedDtor@CallDBRequest@server@mobile@@AEAAXXZ
?SharedDtor@CallDBResponse@server@mobile@@AEAAXXZ
?SharedDtor@CallbackId@server@mobile@@AEAAXXZ
?SharedDtor@ClientBindMsg@server@mobile@@AEAAXXZ
?SharedDtor@ClientInfo@server@mobile@@AEAAXXZ
?SharedDtor@CountDocReply@server@mobile@@AEAAXXZ
?SharedDtor@CountDocRequest@server@mobile@@AEAAXXZ
?SharedDtor@CreateCollectionReply@server@mobile@@AEAAXXZ
?SharedDtor@CreateCollectionRequest@server@mobile@@AEAAXXZ
?SharedDtor@CtrlType@server@mobile@@AEAAXXZ
?SharedDtor@CustomServiceInfo@server@mobile@@AEAAXXZ
?SharedDtor@CustomServiceMsg@server@mobile@@AEAAXXZ
?SharedDtor@DbServerInfo@server@mobile@@AEAAXXZ
?SharedDtor@DbStatusMessage@server@mobile@@AEAAXXZ
?SharedDtor@DeleteDocReply@server@mobile@@AEAAXXZ
?SharedDtor@DeleteDocRequest@server@mobile@@AEAAXXZ
?SharedDtor@EncryptString@server@mobile@@AEAAXXZ
?SharedDtor@EntityInfoHeader@server@mobile@@AEAAXXZ
?SharedDtor@FilterDataObj@server@mobile@@AEAAXXZ
?SharedDtor@FilterUserDatas@server@mobile@@AEAAXXZ
?SharedDtor@FindAndModifyDocReply@server@mobile@@AEAAXXZ
?SharedDtor@FindAndModifyDocRequest@server@mobile@@AEAAXXZ
?SharedDtor@FindDocReply@server@mobile@@AEAAXXZ
?SharedDtor@FindDocRequest@server@mobile@@AEAAXXZ
?SharedDtor@ForwardMessageHeader@server@mobile@@AEAAXXZ
?SharedDtor@GameLoad@server@mobile@@AEAAXXZ
?SharedDtor@GameServerInfos@server@mobile@@AEAAXXZ
?SharedDtor@Gate2GameReturnVal@server@mobile@@AEAAXXZ
?SharedDtor@GateInfo@server@mobile@@AEAAXXZ
?SharedDtor@GateMailbox@server@mobile@@AEAAXXZ
?SharedDtor@GateMessage@server@mobile@@AEAAXXZ
?SharedDtor@GateReturnVal@server@mobile@@AEAAXXZ
?SharedDtor@GlobalData@server@mobile@@AEAAXXZ
?SharedDtor@GlobalEntityRegMsg@server@mobile@@AEAAXXZ
?SharedDtor@GlobalMessage@server@mobile@@AEAAXXZ
?SharedDtor@GmReturnVal@server@mobile@@AEAAXXZ
?SharedDtor@InsertDocReply@server@mobile@@AEAAXXZ
?SharedDtor@InsertDocRequest@server@mobile@@AEAAXXZ
?SharedDtor@LocalIdMessage@server@mobile@@AEAAXXZ
?SharedDtor@MessageIp@server@mobile@@AEAAXXZ
?SharedDtor@OperIndexReply@server@mobile@@AEAAXXZ
?SharedDtor@OperIndexRequest@server@mobile@@AEAAXXZ
?SharedDtor@RealEntityCreateInfo@server@mobile@@AEAAXXZ
?SharedDtor@RedisExecRequest@server@mobile@@AEAAXXZ
?SharedDtor@RedisExecResponse@server@mobile@@AEAAXXZ
?SharedDtor@RedisMultiExecRequest@server@mobile@@AEAAXXZ
?SharedDtor@RedisMultiExecResponse@server@mobile@@AEAAXXZ
?SharedDtor@RedisPiplineExecRequest@server@mobile@@AEAAXXZ
?SharedDtor@RedisPiplineExecResponse@server@mobile@@AEAAXXZ
?SharedDtor@RedisStatusMessage@server@mobile@@AEAAXXZ
?SharedDtor@RegistMd5IndexMsg@server@mobile@@AEAAXXZ
?SharedDtor@RunProcedureReply@server@mobile@@AEAAXXZ
?SharedDtor@RunProcedureRequest@server@mobile@@AEAAXXZ
?SharedDtor@Script@server@mobile@@AEAAXXZ
?SharedDtor@ServerMethod@server@mobile@@AEAAXXZ
?SharedDtor@ServiceInfos@server@mobile@@AEAAXXZ
?SharedDtor@SessionIsp@server@mobile@@AEAAXXZ
?SharedDtor@SessionKey@server@mobile@@AEAAXXZ
?SharedDtor@SessionSeed@server@mobile@@AEAAXXZ
?SharedDtor@SoulBindMsg@server@mobile@@AEAAXXZ
?SharedDtor@SoulUnbindMsg@server@mobile@@AEAAXXZ
?SharedDtor@UpdateDocReply@server@mobile@@AEAAXXZ
?SharedDtor@UpdateDocRequest@server@mobile@@AEAAXXZ
?Size@WriteBytesMem@AK@@QEBAJXZ
?SpecifySvr@EntityInfoHeader@server@mobile@@2W4EntityInfoHeader_ServerType@23@B
?SpecifyType@EntityInfoHeader@server@mobile@@2W4EntityInfoHeader_ServerType@23@B
?StartOutputCapture@SoundEngine@AK@@YA?AW4AKRESULT@@PEB_W@Z
?StartProfileThreadUsage@MemoryMgr@AK@@YAXXZ
?StartProfilerCapture@SoundEngine@AK@@YA?AW4AKRESULT@@PEB_W@Z
?Stop@DynamicSequence@SoundEngine@AK@@YA?AW4AKRESULT@@KJW4AkCurveInterpolation@@@Z
?StopAll@SoundEngine@AK@@YAX_K@Z
?StopMIDIOnEvent@SoundEngine@AK@@YA?AW4AKRESULT@@K_K@Z
?StopOutputCapture@SoundEngine@AK@@YA?AW4AKRESULT@@XZ
?StopPlayingID@SoundEngine@AK@@YAXKJW4AkCurveInterpolation@@@Z
?StopProfileThreadUsage@MemoryMgr@AK@@YA_KXZ
?StopProfilerCapture@SoundEngine@AK@@YA?AW4AKRESULT@@XZ
?StopSourcePlugin@SoundEngine@AK@@YA?AW4AKRESULT@@KKK@Z
?Suspend@SoundEngine@AK@@YA?AW4AKRESULT@@_N@Z
?Swap@ActiveCompress@server@mobile@@QEAAXPEAV123@@Z
?Swap@CallDBRequest@server@mobile@@QEAAXPEAV123@@Z
?Swap@CallDBResponse@server@mobile@@QEAAXPEAV123@@Z
?Swap@CallbackId@server@mobile@@QEAAXPEAV123@@Z
?Swap@ClientBindMsg@server@mobile@@QEAAXPEAV123@@Z
?Swap@ClientInfo@server@mobile@@QEAAXPEAV123@@Z
?Swap@CountDocReply@server@mobile@@QEAAXPEAV123@@Z
?Swap@CountDocRequest@server@mobile@@QEAAXPEAV123@@Z
?Swap@CreateCollectionReply@server@mobile@@QEAAXPEAV123@@Z
?Swap@CreateCollectionRequest@server@mobile@@QEAAXPEAV123@@Z
?Swap@CtrlType@server@mobile@@QEAAXPEAV123@@Z
?Swap@CustomServiceInfo@server@mobile@@QEAAXPEAV123@@Z
?Swap@CustomServiceMsg@server@mobile@@QEAAXPEAV123@@Z
?Swap@DbServerInfo@server@mobile@@QEAAXPEAV123@@Z
?Swap@DbStatusMessage@server@mobile@@QEAAXPEAV123@@Z
?Swap@DeleteDocReply@server@mobile@@QEAAXPEAV123@@Z
?Swap@DeleteDocRequest@server@mobile@@QEAAXPEAV123@@Z
?Swap@EncryptString@server@mobile@@QEAAXPEAV123@@Z
?Swap@EntityInfoHeader@server@mobile@@QEAAXPEAV123@@Z
?Swap@FilterDataObj@server@mobile@@QEAAXPEAV123@@Z
?Swap@FilterUserDatas@server@mobile@@QEAAXPEAV123@@Z
?Swap@FindAndModifyDocReply@server@mobile@@QEAAXPEAV123@@Z
?Swap@FindAndModifyDocRequest@server@mobile@@QEAAXPEAV123@@Z
?Swap@FindDocReply@server@mobile@@QEAAXPEAV123@@Z
?Swap@FindDocRequest@server@mobile@@QEAAXPEAV123@@Z
?Swap@ForwardMessageHeader@server@mobile@@QEAAXPEAV123@@Z
?Swap@GameLoad@server@mobile@@QEAAXPEAV123@@Z
?Swap@GameServerInfos@server@mobile@@QEAAXPEAV123@@Z
?Swap@Gate2GameReturnVal@server@mobile@@QEAAXPEAV123@@Z
?Swap@GateInfo@server@mobile@@QEAAXPEAV123@@Z
?Swap@GateMailbox@server@mobile@@QEAAXPEAV123@@Z
?Swap@GateMessage@server@mobile@@QEAAXPEAV123@@Z
?Swap@GateReturnVal@server@mobile@@QEAAXPEAV123@@Z
?Swap@GlobalData@server@mobile@@QEAAXPEAV123@@Z
?Swap@GlobalEntityRegMsg@server@mobile@@QEAAXPEAV123@@Z
?Swap@GlobalMessage@server@mobile@@QEAAXPEAV123@@Z
?Swap@GmReturnVal@server@mobile@@QEAAXPEAV123@@Z
?Swap@InsertDocReply@server@mobile@@QEAAXPEAV123@@Z
?Swap@InsertDocRequest@server@mobile@@QEAAXPEAV123@@Z
?Swap@LocalIdMessage@server@mobile@@QEAAXPEAV123@@Z
?Swap@MessageIp@server@mobile@@QEAAXPEAV123@@Z
?Swap@OperIndexReply@server@mobile@@QEAAXPEAV123@@Z
?Swap@OperIndexRequest@server@mobile@@QEAAXPEAV123@@Z
?Swap@RealEntityCreateInfo@server@mobile@@QEAAXPEAV123@@Z
?Swap@RedisExecRequest@server@mobile@@QEAAXPEAV123@@Z
?Swap@RedisExecResponse@server@mobile@@QEAAXPEAV123@@Z
?Swap@RedisMultiExecRequest@server@mobile@@QEAAXPEAV123@@Z
?Swap@RedisMultiExecResponse@server@mobile@@QEAAXPEAV123@@Z
?Swap@RedisPiplineExecRequest@server@mobile@@QEAAXPEAV123@@Z
?Swap@RedisPiplineExecResponse@server@mobile@@QEAAXPEAV123@@Z
?Swap@RedisStatusMessage@server@mobile@@QEAAXPEAV123@@Z
?Swap@RegistMd5IndexMsg@server@mobile@@QEAAXPEAV123@@Z
?Swap@RunProcedureReply@server@mobile@@QEAAXPEAV123@@Z
?Swap@RunProcedureRequest@server@mobile@@QEAAXPEAV123@@Z
?Swap@Script@server@mobile@@QEAAXPEAV123@@Z
?Swap@ServerMethod@server@mobile@@QEAAXPEAV123@@Z
?Swap@ServiceInfos@server@mobile@@QEAAXPEAV123@@Z
?Swap@SessionIsp@server@mobile@@QEAAXPEAV123@@Z
?Swap@SessionKey@server@mobile@@QEAAXPEAV123@@Z
?Swap@SessionSeed@server@mobile@@QEAAXPEAV123@@Z
?Swap@SoulBindMsg@server@mobile@@QEAAXPEAV123@@Z
?Swap@SoulUnbindMsg@server@mobile@@QEAAXPEAV123@@Z
?Swap@UpdateDocReply@server@mobile@@QEAAXPEAV123@@Z
?Swap@UpdateDocRequest@server@mobile@@QEAAXPEAV123@@Z
?Term@MemoryMgr@AK@@YAXXZ
?Term@MusicEngine@AK@@YAXXZ
?Term@SoundEngine@AK@@YAXXZ
?TermForThread@MemoryMgr@AK@@YAXXZ
?TryUnsetMedia@SoundEngine@AK@@YA?AW4AKRESULT@@PEAUAkSourceSettings@@KPEAW43@@Z
?UnloadBank@SoundEngine@AK@@YA?AW4AKRESULT@@KPEBX@Z
?UnloadBank@SoundEngine@AK@@YA?AW4AKRESULT@@KPEBXP6AXK0W43@PEAX@Z2@Z
?UnloadBank@SoundEngine@AK@@YA?AW4AKRESULT@@PEBDPEBX@Z
?UnloadBank@SoundEngine@AK@@YA?AW4AKRESULT@@PEBDPEBXP6AXK1W43@PEAX@Z3@Z
?UnloadBank@SoundEngine@AK@@YA?AW4AKRESULT@@PEB_WPEBX@Z
?UnloadBank@SoundEngine@AK@@YA?AW4AKRESULT@@PEB_WPEBXP6AXK1W43@PEAX@Z3@Z
?UnlockPlaylist@DynamicSequence@SoundEngine@AK@@YA?AW4AKRESULT@@K@Z
?UnpinEventInStreamCache@SoundEngine@AK@@YA?AW4AKRESULT@@K@Z
?UnpinEventInStreamCache@SoundEngine@AK@@YA?AW4AKRESULT@@PEBD@Z
?UnpinEventInStreamCache@SoundEngine@AK@@YA?AW4AKRESULT@@PEB_W@Z
?UnregisterAllGameObj@SoundEngine@AK@@YA?AW4AKRESULT@@XZ
?UnregisterAudioDeviceStatusCallback@SoundEngine@AK@@YA?AW4AKRESULT@@XZ
?UnregisterGameObj@SoundEngine@AK@@YA?AW4AKRESULT@@_K@Z
?UnregisterGlobalCallback@SoundEngine@AK@@YA?AW4AKRESULT@@P6AXPEAVIAkGlobalPluginContext@2@W4AkGlobalCallbackLocation@@PEAX@ZK@Z
?UnregisterListener@SpatialAudio@AK@@YA?AW4AKRESULT@@_K@Z
?UnregisterResourceMonitorCallback@SoundEngine@AK@@YA?AW4AKRESULT@@P6AXPEBUAkResourceMonitorDataSummary@@@Z@Z
?UnsetMedia@SoundEngine@AK@@YA?AW4AKRESULT@@PEAUAkSourceSettings@@K@Z
?WakeupFromSuspend@SoundEngine@AK@@YA?AW4AKRESULT@@XZ
?WriteBytes@WriteBytesCount@AK@@UEAA_NPEBXJAEAJ@Z
?WriteBytes@WriteBytesMem@AK@@UEAA_NPEBXJAEAJ@Z
?active_stream_str@ActiveCompress@server@mobile@@QEBAAEBV?$basic_string@DU?$char_traits@D@std@@V?$allocator@D@2@@std@@XZ
?active_unreliable_compress@IGateService@server@mobile@@UEAAXPEAVRpcController@protobuf@google@@PEBVActiveCompress@23@PEAVVoid@23@PEAVClosure@56@@Z
?active_unreliable_compress@IGateService_Stub@server@mobile@@UEAAXPEAVRpcController@protobuf@google@@PEBVActiveCompress@23@PEAVVoid@23@PEAVClosure@56@@Z
?active_unreliable_compress_cb@IGateClient@server@mobile@@UEAAXPEAVRpcController@protobuf@google@@PEBVActiveCompress@23@PEAVVoid@23@PEAVClosure@56@@Z
?active_unreliable_compress_cb@IGateClient_Stub@server@mobile@@UEAAXPEAVRpcController@protobuf@google@@PEBVActiveCompress@23@PEAVVoid@23@PEAVClosure@56@@Z
?add_docs@FindDocReply@server@mobile@@QEAAPEAV?$basic_string@DU?$char_traits@D@std@@V?$allocator@D@2@@std@@XZ
?add_docs@FindDocReply@server@mobile@@QEAAXAEBV?$basic_string@DU?$char_traits@D@std@@V?$allocator@D@2@@std@@@Z
?add_docs@FindDocReply@server@mobile@@QEAAXPEBD@Z
?add_docs@FindDocReply@server@mobile@@QEAAXPEBX_K@Z
?add_filter@@YAHAEBVobject@api@python@boost@@@Z
?add_gameservers@GameServerInfos@server@mobile@@QEAAPEAVServerInfo@23@XZ
?add_services@ServiceInfos@server@mobile@@QEAAPEAVServiceInfo@23@XZ
?add_str_filter@@YAHAEBV?$basic_string@DU?$char_traits@D@std@@V?$allocator@D@2@@std@@AEBVobject@api@python@boost@@@Z
?add_userdatas@FilterUserDatas@server@mobile@@QEAAPEAVFilterDataObj@23@XZ
?args@CallDBRequest@server@mobile@@QEBAAEBV?$basic_string@DU?$char_traits@D@std@@V?$allocator@D@2@@std@@XZ
?args@CallDBResponse@server@mobile@@QEBAAEBV?$basic_string@DU?$char_traits@D@std@@V?$allocator@D@2@@std@@XZ
?args@RedisExecRequest@server@mobile@@QEBAAEBV?$basic_string@DU?$char_traits@D@std@@V?$allocator@D@2@@std@@XZ
?args@RunProcedureRequest@server@mobile@@QEBAAEBV?$basic_string@DU?$char_traits@D@std@@V?$allocator@D@2@@std@@XZ
?async_add_repeat_timer@@YA_KNN_N@Z
?async_add_timer@@YA_KNN_N@Z
?async_del_timer@@YAX_K@Z
?async_get_loop_time@@YAJXZ
?async_get_service_factory@@YA?AV?$shared_ptr@Viservice_factory@async@@@boost@@XZ
?async_get_thread_num@@YA_KXZ
?async_get_timer_speed@@YAHXZ
?async_init@@YAXXZ
?async_poll@@YA_N_N@Z
?async_set_login_key_path@@YAXAEBV?$basic_string@DU?$char_traits@D@std@@V?$allocator@D@2@@std@@@Z
?async_set_loop_time@@YAXJ@Z
?async_set_service_factory@@YAXV?$shared_ptr@Viservice_factory@async@@@boost@@@Z
?async_set_thread_num@@YAX_K@Z
?async_set_timer_chandler@@YAXP6A_NH@Z@Z
?async_set_timer_handler@@YAXAEAVobject@api@python@boost@@@Z
?async_set_timer_speed@@YAXH@Z
?async_start@@YAXXZ
?async_stop@@YAXXZ
?avatar_mailbox@SoulBindMsg@server@mobile@@QEBAAEBVEntityMailbox@23@XZ
?begin@LocalIdMessage@server@mobile@@QEBAHXZ
?bind_client_to_game@IGameClient@server@mobile@@UEAAXPEAVRpcController@protobuf@google@@PEBVClientBindMsg@23@PEAVVoid@23@PEAVClosure@56@@Z
?bind_client_to_game@IGameClient_Stub@server@mobile@@UEAAXPEAVRpcController@protobuf@google@@PEBVClientBindMsg@23@PEAVVoid@23@PEAVClosure@56@@Z
?bind_soul@IGameClient@server@mobile@@UEAAXPEAVRpcController@protobuf@google@@PEBVSoulBindMsg@23@PEAVVoid@23@PEAVClosure@56@@Z
?bind_soul@IGameClient_Stub@server@mobile@@UEAAXPEAVRpcController@protobuf@google@@PEBVSoulBindMsg@23@PEAVVoid@23@PEAVClosure@56@@Z
?call_db_method@IDbManager@server@mobile@@UEAAXPEAVRpcController@protobuf@google@@PEBVCallDBRequest@23@PEAVVoid@23@PEAVClosure@56@@Z
?call_db_method@IDbManager_Stub@server@mobile@@UEAAXPEAVRpcController@protobuf@google@@PEBVCallDBRequest@23@PEAVVoid@23@PEAVClosure@56@@Z
?call_db_method_reply@IDbManagerClient@server@mobile@@UEAAXPEAVRpcController@protobuf@google@@PEBVCallDBResponse@23@PEAVVoid@23@PEAVClosure@56@@Z
?call_db_method_reply@IDbManagerClient_Stub@server@mobile@@UEAAXPEAVRpcController@protobuf@google@@PEBVCallDBResponse@23@PEAVVoid@23@PEAVClosure@56@@Z
?call_request@service_manager@async@@QEAA_KXZ
?call_traverse@service@async@@UEAAXV?$shared_ptr@Vrpc_traverse_msg@async@@@boost@@@Z
?callback_id@CallDBRequest@server@mobile@@QEBAHXZ
?callback_id@CallDBResponse@server@mobile@@QEBAHXZ
?callback_id@CallbackId@server@mobile@@QEBAHXZ
?callback_id@CountDocReply@server@mobile@@QEBAHXZ
?callback_id@CountDocRequest@server@mobile@@QEBAHXZ
?callback_id@CreateCollectionReply@server@mobile@@QEBAHXZ
?callback_id@CreateCollectionRequest@server@mobile@@QEBAHXZ
?callback_id@DeleteDocReply@server@mobile@@QEBAHXZ
?callback_id@DeleteDocRequest@server@mobile@@QEBAHXZ
?callback_id@EntityInfoHeader@server@mobile@@QEBAHXZ
?callback_id@FindAndModifyDocReply@server@mobile@@QEBAHXZ
?callback_id@FindAndModifyDocRequest@server@mobile@@QEBAHXZ
?callback_id@FindDocReply@server@mobile@@QEBAHXZ
?callback_id@FindDocRequest@server@mobile@@QEBAHXZ
?callback_id@ForwardMessageHeader@server@mobile@@QEBAHXZ
?callback_id@Gate2GameReturnVal@server@mobile@@QEBAHXZ
?callback_id@GlobalEntityRegMsg@server@mobile@@QEBAHXZ
?callback_id@GmReturnVal@server@mobile@@QEBAHXZ
?callback_id@InsertDocReply@server@mobile@@QEBAHXZ
?callback_id@InsertDocRequest@server@mobile@@QEBAHXZ
?callback_id@OperIndexReply@server@mobile@@QEBAHXZ
?callback_id@OperIndexRequest@server@mobile@@QEBAHXZ
?callback_id@RedisExecRequest@server@mobile@@QEBAHXZ
?callback_id@RedisExecResponse@server@mobile@@QEBAHXZ
?callback_id@RedisMultiExecRequest@server@mobile@@QEBAHXZ
?callback_id@RedisMultiExecResponse@server@mobile@@QEBAHXZ
?callback_id@RedisPiplineExecRequest@server@mobile@@QEBAHXZ
?callback_id@RedisPiplineExecResponse@server@mobile@@QEBAHXZ
?callback_id@RunProcedureReply@server@mobile@@QEBAHXZ
?callback_id@RunProcedureRequest@server@mobile@@QEBAHXZ
?callback_id@SoulBindMsg@server@mobile@@QEBAHXZ
?callback_id@SoulUnbindMsg@server@mobile@@QEBAHXZ
?callback_id@UpdateDocReply@server@mobile@@QEBAHXZ
?callback_id@UpdateDocRequest@server@mobile@@QEBAHXZ
?channel@IDbManagerClient_Stub@server@mobile@@QEAAPEAVRpcChannel@protobuf@google@@XZ
?channel@IDbManager_Stub@server@mobile@@QEAAPEAVRpcChannel@protobuf@google@@XZ
?channel@IGameClient_Stub@server@mobile@@QEAAPEAVRpcChannel@protobuf@google@@XZ
?channel@IGameManagerClient_Stub@server@mobile@@QEAAPEAVRpcChannel@protobuf@google@@XZ
?channel@IGameManager_Stub@server@mobile@@QEAAPEAVRpcChannel@protobuf@google@@XZ
?channel@IGameService_Stub@server@mobile@@QEAAPEAVRpcChannel@protobuf@google@@XZ
?channel@IGateClient_Stub@server@mobile@@QEAAPEAVRpcChannel@protobuf@google@@XZ
?channel@IGateService_Stub@server@mobile@@QEAAPEAVRpcChannel@protobuf@google@@XZ
?chat_to_client@IGameClient@server@mobile@@UEAAXPEAVRpcController@protobuf@google@@PEBVOutBandInfo@23@PEAVVoid@23@PEAVClosure@56@@Z
?chat_to_client@IGameClient_Stub@server@mobile@@UEAAXPEAVRpcController@protobuf@google@@PEBVOutBandInfo@23@PEAVVoid@23@PEAVClosure@56@@Z
?chat_to_client@IGateClient@server@mobile@@UEAAXPEAVRpcController@protobuf@google@@PEBVOutBandInfo@23@PEAVVoid@23@PEAVClosure@56@@Z
?chat_to_client@IGateClient_Stub@server@mobile@@UEAAXPEAVRpcController@protobuf@google@@PEBVOutBandInfo@23@PEAVVoid@23@PEAVClosure@56@@Z
?clear_active_stream_str@ActiveCompress@server@mobile@@QEAAXXZ
?clear_args@CallDBRequest@server@mobile@@QEAAXXZ
?clear_args@CallDBResponse@server@mobile@@QEAAXXZ
?clear_args@RedisExecRequest@server@mobile@@QEAAXXZ
?clear_args@RunProcedureRequest@server@mobile@@QEAAXXZ
?clear_avatar_mailbox@SoulBindMsg@server@mobile@@QEAAXXZ
?clear_begin@LocalIdMessage@server@mobile@@QEAAXXZ
?clear_callback_id@CallDBRequest@server@mobile@@QEAAXXZ
?clear_callback_id@CallDBResponse@server@mobile@@QEAAXXZ
?clear_callback_id@CallbackId@server@mobile@@QEAAXXZ
?clear_callback_id@CountDocReply@server@mobile@@QEAAXXZ
?clear_callback_id@CountDocRequest@server@mobile@@QEAAXXZ
?clear_callback_id@CreateCollectionReply@server@mobile@@QEAAXXZ
?clear_callback_id@CreateCollectionRequest@server@mobile@@QEAAXXZ
?clear_callback_id@DeleteDocReply@server@mobile@@QEAAXXZ
?clear_callback_id@DeleteDocRequest@server@mobile@@QEAAXXZ
?clear_callback_id@EntityInfoHeader@server@mobile@@QEAAXXZ
?clear_callback_id@FindAndModifyDocReply@server@mobile@@QEAAXXZ
?clear_callback_id@FindAndModifyDocRequest@server@mobile@@QEAAXXZ
?clear_callback_id@FindDocReply@server@mobile@@QEAAXXZ
?clear_callback_id@FindDocRequest@server@mobile@@QEAAXXZ
?clear_callback_id@ForwardMessageHeader@server@mobile@@QEAAXXZ
?clear_callback_id@Gate2GameReturnVal@server@mobile@@QEAAXXZ
?clear_callback_id@GlobalEntityRegMsg@server@mobile@@QEAAXXZ
?clear_callback_id@GmReturnVal@server@mobile@@QEAAXXZ
?clear_callback_id@InsertDocReply@server@mobile@@QEAAXXZ
?clear_callback_id@InsertDocRequest@server@mobile@@QEAAXXZ
?clear_callback_id@OperIndexReply@server@mobile@@QEAAXXZ
?clear_callback_id@OperIndexRequest@server@mobile@@QEAAXXZ
?clear_callback_id@RedisExecRequest@server@mobile@@QEAAXXZ
?clear_callback_id@RedisExecResponse@server@mobile@@QEAAXXZ
?clear_callback_id@RedisMultiExecRequest@server@mobile@@QEAAXXZ
?clear_callback_id@RedisMultiExecResponse@server@mobile@@QEAAXXZ
?clear_callback_id@RedisPiplineExecRequest@server@mobile@@QEAAXXZ
?clear_callback_id@RedisPiplineExecResponse@server@mobile@@QEAAXXZ
?clear_callback_id@RunProcedureReply@server@mobile@@QEAAXXZ
?clear_callback_id@RunProcedureRequest@server@mobile@@QEAAXXZ
?clear_callback_id@SoulBindMsg@server@mobile@@QEAAXXZ
?clear_callback_id@SoulUnbindMsg@server@mobile@@QEAAXXZ
?clear_callback_id@UpdateDocReply@server@mobile@@QEAAXXZ
?clear_callback_id@UpdateDocRequest@server@mobile@@QEAAXXZ
?clear_clientid@ClientInfo@server@mobile@@QEAAXXZ
?clear_clientid@ForwardMessageHeader@server@mobile@@QEAAXXZ
?clear_clientinfo@ClientBindMsg@server@mobile@@QEAAXXZ
?clear_clientinfo@EntityInfoHeader@server@mobile@@QEAAXXZ
?clear_clientinfo@GateMailbox@server@mobile@@QEAAXXZ
?clear_clientinfo@GateReturnVal@server@mobile@@QEAAXXZ
?clear_clientinfo@SoulBindMsg@server@mobile@@QEAAXXZ
?clear_clientinfo@SoulUnbindMsg@server@mobile@@QEAAXXZ
?clear_clientinfocache@RealEntityCreateInfo@server@mobile@@QEAAXXZ
?clear_cmcc@SoulBindMsg@server@mobile@@QEAAXXZ
?clear_collection@CountDocRequest@server@mobile@@QEAAXXZ
?clear_collection@CreateCollectionRequest@server@mobile@@QEAAXXZ
?clear_collection@DeleteDocRequest@server@mobile@@QEAAXXZ
?clear_collection@FindAndModifyDocRequest@server@mobile@@QEAAXXZ
?clear_collection@FindDocRequest@server@mobile@@QEAAXXZ
?clear_collection@InsertDocRequest@server@mobile@@QEAAXXZ
?clear_collection@OperIndexRequest@server@mobile@@QEAAXXZ
?clear_collection@UpdateDocRequest@server@mobile@@QEAAXXZ
?clear_content@RealEntityCreateInfo@server@mobile@@QEAAXXZ
?clear_count@CountDocReply@server@mobile@@QEAAXXZ
?clear_create_anywhere@EntityInfoHeader@server@mobile@@QEAAXXZ
?clear_create_from_db@EntityInfoHeader@server@mobile@@QEAAXXZ
?clear_ctcc@SoulBindMsg@server@mobile@@QEAAXXZ
?clear_cucc@SoulBindMsg@server@mobile@@QEAAXXZ
?clear_db@CountDocRequest@server@mobile@@QEAAXXZ
?clear_db@CreateCollectionRequest@server@mobile@@QEAAXXZ
?clear_db@DeleteDocRequest@server@mobile@@QEAAXXZ
?clear_db@FindAndModifyDocRequest@server@mobile@@QEAAXXZ
?clear_db@FindDocRequest@server@mobile@@QEAAXXZ
?clear_db@InsertDocRequest@server@mobile@@QEAAXXZ
?clear_db@OperIndexRequest@server@mobile@@QEAAXXZ
?clear_db@RedisExecRequest@server@mobile@@QEAAXXZ
?clear_db@RedisMultiExecRequest@server@mobile@@QEAAXXZ
?clear_db@RedisPiplineExecRequest@server@mobile@@QEAAXXZ
?clear_db@RunProcedureRequest@server@mobile@@QEAAXXZ
?clear_db@UpdateDocRequest@server@mobile@@QEAAXXZ
?clear_db_name@DbServerInfo@server@mobile@@QEAAXXZ
?clear_desc@OperIndexRequest@server@mobile@@QEAAXXZ
?clear_doc@FindAndModifyDocReply@server@mobile@@QEAAXXZ
?clear_doc@InsertDocRequest@server@mobile@@QEAAXXZ
?clear_doc@RunProcedureReply@server@mobile@@QEAAXXZ
?clear_doc@UpdateDocRequest@server@mobile@@QEAAXXZ
?clear_docs@FindDocReply@server@mobile@@QEAAXXZ
?clear_dst_server@EntityInfoHeader@server@mobile@@QEAAXXZ
?clear_dst_srv@RealEntityCreateInfo@server@mobile@@QEAAXXZ
?clear_dstmb@ForwardMessageHeader@server@mobile@@QEAAXXZ
?clear_encryptstr@EncryptString@server@mobile@@QEAAXXZ
?clear_entity_uniq_name@GlobalEntityRegMsg@server@mobile@@QEAAXXZ
?clear_entityid@ClientBindMsg@server@mobile@@QEAAXXZ
?clear_entityid@GateMailbox@server@mobile@@QEAAXXZ
?clear_error_msg@Gate2GameReturnVal@server@mobile@@QEAAXXZ
?clear_error_msg@GmReturnVal@server@mobile@@QEAAXXZ
?clear_fields@FindAndModifyDocRequest@server@mobile@@QEAAXXZ
?clear_fields@FindDocRequest@server@mobile@@QEAAXXZ
?clear_gameservers@GameServerInfos@server@mobile@@QEAAXXZ
?clear_gateid@ClientInfo@server@mobile@@QEAAXXZ
?clear_gateid@GateInfo@server@mobile@@QEAAXXZ
?clear_has_active_stream_str@ActiveCompress@server@mobile@@AEAAXXZ
?clear_has_args@CallDBRequest@server@mobile@@AEAAXXZ
?clear_has_args@CallDBResponse@server@mobile@@AEAAXXZ
?clear_has_args@RedisExecRequest@server@mobile@@AEAAXXZ
?clear_has_args@RunProcedureRequest@server@mobile@@AEAAXXZ
?clear_has_avatar_mailbox@SoulBindMsg@server@mobile@@AEAAXXZ
?clear_has_begin@LocalIdMessage@server@mobile@@AEAAXXZ
?clear_has_callback_id@CallDBRequest@server@mobile@@AEAAXXZ
?clear_has_callback_id@CallDBResponse@server@mobile@@AEAAXXZ
?clear_has_callback_id@CallbackId@server@mobile@@AEAAXXZ
?clear_has_callback_id@CountDocReply@server@mobile@@AEAAXXZ
?clear_has_callback_id@CountDocRequest@server@mobile@@AEAAXXZ
?clear_has_callback_id@CreateCollectionReply@server@mobile@@AEAAXXZ
?clear_has_callback_id@CreateCollectionRequest@server@mobile@@AEAAXXZ
?clear_has_callback_id@DeleteDocReply@server@mobile@@AEAAXXZ
?clear_has_callback_id@DeleteDocRequest@server@mobile@@AEAAXXZ
?clear_has_callback_id@EntityInfoHeader@server@mobile@@AEAAXXZ
?clear_has_callback_id@FindAndModifyDocReply@server@mobile@@AEAAXXZ
?clear_has_callback_id@FindAndModifyDocRequest@server@mobile@@AEAAXXZ
?clear_has_callback_id@FindDocReply@server@mobile@@AEAAXXZ
?clear_has_callback_id@FindDocRequest@server@mobile@@AEAAXXZ
?clear_has_callback_id@ForwardMessageHeader@server@mobile@@AEAAXXZ
?clear_has_callback_id@Gate2GameReturnVal@server@mobile@@AEAAXXZ
?clear_has_callback_id@GlobalEntityRegMsg@server@mobile@@AEAAXXZ
?clear_has_callback_id@GmReturnVal@server@mobile@@AEAAXXZ
?clear_has_callback_id@InsertDocReply@server@mobile@@AEAAXXZ
?clear_has_callback_id@InsertDocRequest@server@mobile@@AEAAXXZ
?clear_has_callback_id@OperIndexReply@server@mobile@@AEAAXXZ
?clear_has_callback_id@OperIndexRequest@server@mobile@@AEAAXXZ
?clear_has_callback_id@RedisExecRequest@server@mobile@@AEAAXXZ
?clear_has_callback_id@RedisExecResponse@server@mobile@@AEAAXXZ
?clear_has_callback_id@RedisMultiExecRequest@server@mobile@@AEAAXXZ
?clear_has_callback_id@RedisMultiExecResponse@server@mobile@@AEAAXXZ
?clear_has_callback_id@RedisPiplineExecRequest@server@mobile@@AEAAXXZ
?clear_has_callback_id@RedisPiplineExecResponse@server@mobile@@AEAAXXZ
?clear_has_callback_id@RunProcedureReply@server@mobile@@AEAAXXZ
?clear_has_callback_id@RunProcedureRequest@server@mobile@@AEAAXXZ
?clear_has_callback_id@SoulBindMsg@server@mobile@@AEAAXXZ
?clear_has_callback_id@SoulUnbindMsg@server@mobile@@AEAAXXZ
?clear_has_callback_id@UpdateDocReply@server@mobile@@AEAAXXZ
?clear_has_callback_id@UpdateDocRequest@server@mobile@@AEAAXXZ
?clear_has_clientid@ClientInfo@server@mobile@@AEAAXXZ
?clear_has_clientid@ForwardMessageHeader@server@mobile@@AEAAXXZ
?clear_has_clientinfo@ClientBindMsg@server@mobile@@AEAAXXZ
?clear_has_clientinfo@EntityInfoHeader@server@mobile@@AEAAXXZ
?clear_has_clientinfo@GateMailbox@server@mobile@@AEAAXXZ
?clear_has_clientinfo@GateReturnVal@server@mobile@@AEAAXXZ
?clear_has_clientinfo@SoulBindMsg@server@mobile@@AEAAXXZ
?clear_has_clientinfo@SoulUnbindMsg@server@mobile@@AEAAXXZ
?clear_has_clientinfocache@RealEntityCreateInfo@server@mobile@@AEAAXXZ
?clear_has_cmcc@SoulBindMsg@server@mobile@@AEAAXXZ
?clear_has_collection@CountDocRequest@server@mobile@@AEAAXXZ
?clear_has_collection@CreateCollectionRequest@server@mobile@@AEAAXXZ
?clear_has_collection@DeleteDocRequest@server@mobile@@AEAAXXZ
?clear_has_collection@FindAndModifyDocRequest@server@mobile@@AEAAXXZ
?clear_has_collection@FindDocRequest@server@mobile@@AEAAXXZ
?clear_has_collection@InsertDocRequest@server@mobile@@AEAAXXZ
?clear_has_collection@OperIndexRequest@server@mobile@@AEAAXXZ
?clear_has_collection@UpdateDocRequest@server@mobile@@AEAAXXZ
?clear_has_content@RealEntityCreateInfo@server@mobile@@AEAAXXZ
?clear_has_count@CountDocReply@server@mobile@@AEAAXXZ
?clear_has_create_anywhere@EntityInfoHeader@server@mobile@@AEAAXXZ
?clear_has_create_from_db@EntityInfoHeader@server@mobile@@AEAAXXZ
?clear_has_ctcc@SoulBindMsg@server@mobile@@AEAAXXZ
?clear_has_cucc@SoulBindMsg@server@mobile@@AEAAXXZ
?clear_has_db@CountDocRequest@server@mobile@@AEAAXXZ
?clear_has_db@CreateCollectionRequest@server@mobile@@AEAAXXZ
?clear_has_db@DeleteDocRequest@server@mobile@@AEAAXXZ
?clear_has_db@FindAndModifyDocRequest@server@mobile@@AEAAXXZ
?clear_has_db@FindDocRequest@server@mobile@@AEAAXXZ
?clear_has_db@InsertDocRequest@server@mobile@@AEAAXXZ
?clear_has_db@OperIndexRequest@server@mobile@@AEAAXXZ
?clear_has_db@RedisExecRequest@server@mobile@@AEAAXXZ
?clear_has_db@RedisMultiExecRequest@server@mobile@@AEAAXXZ
?clear_has_db@RedisPiplineExecRequest@server@mobile@@AEAAXXZ
?clear_has_db@RunProcedureRequest@server@mobile@@AEAAXXZ
?clear_has_db@UpdateDocRequest@server@mobile@@AEAAXXZ
?clear_has_db_name@DbServerInfo@server@mobile@@AEAAXXZ
?clear_has_desc@OperIndexRequest@server@mobile@@AEAAXXZ
?clear_has_doc@FindAndModifyDocReply@server@mobile@@AEAAXXZ
?clear_has_doc@InsertDocRequest@server@mobile@@AEAAXXZ
?clear_has_doc@RunProcedureReply@server@mobile@@AEAAXXZ
?clear_has_doc@UpdateDocRequest@server@mobile@@AEAAXXZ
?clear_has_dst_server@EntityInfoHeader@server@mobile@@AEAAXXZ
?clear_has_dst_srv@RealEntityCreateInfo@server@mobile@@AEAAXXZ
?clear_has_dstmb@ForwardMessageHeader@server@mobile@@AEAAXXZ
?clear_has_encryptstr@EncryptString@server@mobile@@AEAAXXZ
?clear_has_entity_uniq_name@GlobalEntityRegMsg@server@mobile@@AEAAXXZ
?clear_has_entityid@ClientBindMsg@server@mobile@@AEAAXXZ
?clear_has_entityid@GateMailbox@server@mobile@@AEAAXXZ
?clear_has_error_msg@Gate2GameReturnVal@server@mobile@@AEAAXXZ
?clear_has_error_msg@GmReturnVal@server@mobile@@AEAAXXZ
?clear_has_fields@FindAndModifyDocRequest@server@mobile@@AEAAXXZ
?clear_has_fields@FindDocRequest@server@mobile@@AEAAXXZ
?clear_has_gateid@ClientInfo@server@mobile@@AEAAXXZ
?clear_has_gateid@GateInfo@server@mobile@@AEAAXXZ
?clear_has_hint@FindDocRequest@server@mobile@@AEAAXXZ
?clear_has_id@CustomServiceInfo@server@mobile@@AEAAXXZ
?clear_has_independent@SoulBindMsg@server@mobile@@AEAAXXZ
?clear_has_insert_id@InsertDocReply@server@mobile@@AEAAXXZ
?clear_has_intvalue@FilterDataObj@server@mobile@@AEAAXXZ
?clear_has_ip@ClientInfo@server@mobile@@AEAAXXZ
?clear_has_ip@MessageIp@server@mobile@@AEAAXXZ
?clear_has_is_soul@ClientInfo@server@mobile@@AEAAXXZ
?clear_has_isp@SessionIsp@server@mobile@@AEAAXXZ
?clear_has_key@FilterDataObj@server@mobile@@AEAAXXZ
?clear_has_key@GlobalData@server@mobile@@AEAAXXZ
?clear_has_kwargs@RedisExecRequest@server@mobile@@AEAAXXZ
?clear_has_kwargs@RunProcedureRequest@server@mobile@@AEAAXXZ
?clear_has_limit@FindDocRequest@server@mobile@@AEAAXXZ
?clear_has_load@GameLoad@server@mobile@@AEAAXXZ
?clear_has_localid@RealEntityCreateInfo@server@mobile@@AEAAXXZ
?clear_has_mailbox@GlobalEntityRegMsg@server@mobile@@AEAAXXZ
?clear_has_md5_idx@RegistMd5IndexMsg@server@mobile@@AEAAXXZ
?clear_has_message@GlobalMessage@server@mobile@@AEAAXXZ
?clear_has_method@CallDBRequest@server@mobile@@AEAAXXZ
?clear_has_method@CustomServiceMsg@server@mobile@@AEAAXXZ
?clear_has_method@GateMessage@server@mobile@@AEAAXXZ
?clear_has_method@ServerMethod@server@mobile@@AEAAXXZ
?clear_has_multi@UpdateDocRequest@server@mobile@@AEAAXXZ
?clear_has_new_@FindAndModifyDocRequest@server@mobile@@AEAAXXZ
?clear_has_op@CtrlType@server@mobile@@AEAAXXZ
?clear_has_operations@CreateCollectionRequest@server@mobile@@AEAAXXZ
?clear_has_override@GlobalEntityRegMsg@server@mobile@@AEAAXXZ
?clear_has_parameters@CustomServiceMsg@server@mobile@@AEAAXXZ
?clear_has_parameters@GateMessage@server@mobile@@AEAAXXZ
?clear_has_params@ServerMethod@server@mobile@@AEAAXXZ
?clear_has_port@ClientInfo@server@mobile@@AEAAXXZ
?clear_has_pre_transfer_entityid@RealEntityCreateInfo@server@mobile@@AEAAXXZ
?clear_has_proc@RunProcedureRequest@server@mobile@@AEAAXXZ
?clear_has_query@CountDocRequest@server@mobile@@AEAAXXZ
?clear_has_query@DeleteDocRequest@server@mobile@@AEAAXXZ
?clear_has_query@FindAndModifyDocRequest@server@mobile@@AEAAXXZ
?clear_has_query@FindDocRequest@server@mobile@@AEAAXXZ
?clear_has_query@OperIndexRequest@server@mobile@@AEAAXXZ
?clear_has_query@RedisExecRequest@server@mobile@@AEAAXXZ
?clear_has_query@RedisMultiExecRequest@server@mobile@@AEAAXXZ
?clear_has_query@RedisPiplineExecRequest@server@mobile@@AEAAXXZ
?clear_has_query@UpdateDocRequest@server@mobile@@AEAAXXZ
?clear_has_random_padding_header@SessionKey@server@mobile@@AEAAXXZ
?clear_has_random_padding_tail@SessionKey@server@mobile@@AEAAXXZ
?clear_has_range_num@LocalIdMessage@server@mobile@@AEAAXXZ
?clear_has_read_pref@FindDocRequest@server@mobile@@AEAAXXZ
?clear_has_real_class_type@RealEntityCreateInfo@server@mobile@@AEAAXXZ
?clear_has_real_entityid@RealEntityCreateInfo@server@mobile@@AEAAXXZ
?clear_has_remove@FindAndModifyDocRequest@server@mobile@@AEAAXXZ
?clear_has_reply_docs@RedisExecResponse@server@mobile@@AEAAXXZ
?clear_has_reply_docs@RedisMultiExecResponse@server@mobile@@AEAAXXZ
?clear_has_reply_docs@RedisPiplineExecResponse@server@mobile@@AEAAXXZ
?clear_has_return_status@Gate2GameReturnVal@server@mobile@@AEAAXXZ
?clear_has_return_status@GateReturnVal@server@mobile@@AEAAXXZ
?clear_has_return_status@GmReturnVal@server@mobile@@AEAAXXZ
?clear_has_return_val@Gate2GameReturnVal@server@mobile@@AEAAXXZ
?clear_has_return_val@GmReturnVal@server@mobile@@AEAAXXZ
?clear_has_routes@CustomServiceMsg@server@mobile@@AEAAXXZ
?clear_has_routes@FilterUserDatas@server@mobile@@AEAAXXZ
?clear_has_routes@RegistMd5IndexMsg@server@mobile@@AEAAXXZ
?clear_has_script_content@Script@server@mobile@@AEAAXXZ
?clear_has_seed@SessionKey@server@mobile@@AEAAXXZ
?clear_has_seed@SessionSeed@server@mobile@@AEAAXXZ
?clear_has_seq_key@DeleteDocRequest@server@mobile@@AEAAXXZ
?clear_has_seq_key@FindAndModifyDocRequest@server@mobile@@AEAAXXZ
?clear_has_seq_key@FindDocRequest@server@mobile@@AEAAXXZ
?clear_has_seq_key@InsertDocRequest@server@mobile@@AEAAXXZ
?clear_has_seq_key@UpdateDocRequest@server@mobile@@AEAAXXZ
?clear_has_seqflag@DeleteDocRequest@server@mobile@@AEAAXXZ
?clear_has_seqflag@FindAndModifyDocRequest@server@mobile@@AEAAXXZ
?clear_has_seqflag@FindDocRequest@server@mobile@@AEAAXXZ
?clear_has_seqflag@InsertDocRequest@server@mobile@@AEAAXXZ
?clear_has_seqflag@UpdateDocRequest@server@mobile@@AEAAXXZ
?clear_has_server@ClientBindMsg@server@mobile@@AEAAXXZ
?clear_has_server_type@ServerMethod@server@mobile@@AEAAXXZ
?clear_has_service_info@CustomServiceMsg@server@mobile@@AEAAXXZ
?clear_has_service_name@CustomServiceInfo@server@mobile@@AEAAXXZ
?clear_has_session_key@SessionKey@server@mobile@@AEAAXXZ
?clear_has_sessionid@ClientInfo@server@mobile@@AEAAXXZ
?clear_has_skip@FindDocRequest@server@mobile@@AEAAXXZ
?clear_has_sort@FindAndModifyDocRequest@server@mobile@@AEAAXXZ
?clear_has_sort@FindDocRequest@server@mobile@@AEAAXXZ
?clear_has_soul_mailbox@SoulBindMsg@server@mobile@@AEAAXXZ
?clear_has_src_srv@RealEntityCreateInfo@server@mobile@@AEAAXXZ
?clear_has_srcmb@ForwardMessageHeader@server@mobile@@AEAAXXZ
?clear_has_status@CountDocReply@server@mobile@@AEAAXXZ
?clear_has_status@CreateCollectionReply@server@mobile@@AEAAXXZ
?clear_has_status@DbStatusMessage@server@mobile@@AEAAXXZ
?clear_has_status@DeleteDocReply@server@mobile@@AEAAXXZ
?clear_has_status@FindAndModifyDocReply@server@mobile@@AEAAXXZ
?clear_has_status@FindDocReply@server@mobile@@AEAAXXZ
?clear_has_status@InsertDocReply@server@mobile@@AEAAXXZ
?clear_has_status@OperIndexReply@server@mobile@@AEAAXXZ
?clear_has_status@RedisExecResponse@server@mobile@@AEAAXXZ
?clear_has_status@RedisMultiExecResponse@server@mobile@@AEAAXXZ
?clear_has_status@RedisPiplineExecResponse@server@mobile@@AEAAXXZ
?clear_has_status@RedisStatusMessage@server@mobile@@AEAAXXZ
?clear_has_status@RunProcedureReply@server@mobile@@AEAAXXZ
?clear_has_status@UpdateDocReply@server@mobile@@AEAAXXZ
?clear_has_strvalue@FilterDataObj@server@mobile@@AEAAXXZ
?clear_has_support_dc@SoulBindMsg@server@mobile@@AEAAXXZ
?clear_has_transfer_entity@EntityInfoHeader@server@mobile@@AEAAXXZ
?clear_has_type@Gate2GameReturnVal@server@mobile@@AEAAXXZ
?clear_has_type@GmReturnVal@server@mobile@@AEAAXXZ
?clear_has_type@OperIndexRequest@server@mobile@@AEAAXXZ
?clear_has_update@FindAndModifyDocRequest@server@mobile@@AEAAXXZ
?clear_has_upsert@FindAndModifyDocRequest@server@mobile@@AEAAXXZ
?clear_has_upset@UpdateDocRequest@server@mobile@@AEAAXXZ
?clear_has_value@GlobalData@server@mobile@@AEAAXXZ
?clear_hint@FindDocRequest@server@mobile@@QEAAXXZ
?clear_id@CustomServiceInfo@server@mobile@@QEAAXXZ
?clear_independent@SoulBindMsg@server@mobile@@QEAAXXZ
?clear_insert_id@InsertDocReply@server@mobile@@QEAAXXZ
?clear_intvalue@FilterDataObj@server@mobile@@QEAAXXZ
?clear_ip@ClientInfo@server@mobile@@QEAAXXZ
?clear_ip@MessageIp@server@mobile@@QEAAXXZ
?clear_is_soul@ClientInfo@server@mobile@@QEAAXXZ
?clear_isp@SessionIsp@server@mobile@@QEAAXXZ
?clear_key@FilterDataObj@server@mobile@@QEAAXXZ
?clear_key@GlobalData@server@mobile@@QEAAXXZ
?clear_kwargs@RedisExecRequest@server@mobile@@QEAAXXZ
?clear_kwargs@RunProcedureRequest@server@mobile@@QEAAXXZ
?clear_limit@FindDocRequest@server@mobile@@QEAAXXZ
?clear_load@GameLoad@server@mobile@@QEAAXXZ
?clear_localid@RealEntityCreateInfo@server@mobile@@QEAAXXZ
?clear_mailbox@GlobalEntityRegMsg@server@mobile@@QEAAXXZ
?clear_md5_idx@RegistMd5IndexMsg@server@mobile@@QEAAXXZ
?clear_message@GlobalMessage@server@mobile@@QEAAXXZ
?clear_method@CallDBRequest@server@mobile@@QEAAXXZ
?clear_method@CustomServiceMsg@server@mobile@@QEAAXXZ
?clear_method@GateMessage@server@mobile@@QEAAXXZ
?clear_method@ServerMethod@server@mobile@@QEAAXXZ
?clear_multi@UpdateDocRequest@server@mobile@@QEAAXXZ
?clear_new_@FindAndModifyDocRequest@server@mobile@@QEAAXXZ
?clear_op@CtrlType@server@mobile@@QEAAXXZ
?clear_operations@CreateCollectionRequest@server@mobile@@QEAAXXZ
?clear_override@GlobalEntityRegMsg@server@mobile@@QEAAXXZ
?clear_parameters@CustomServiceMsg@server@mobile@@QEAAXXZ
?clear_parameters@GateMessage@server@mobile@@QEAAXXZ
?clear_params@ServerMethod@server@mobile@@QEAAXXZ
?clear_port@ClientInfo@server@mobile@@QEAAXXZ
?clear_pre_transfer_entityid@RealEntityCreateInfo@server@mobile@@QEAAXXZ
?clear_proc@RunProcedureRequest@server@mobile@@QEAAXXZ
?clear_query@CountDocRequest@server@mobile@@QEAAXXZ
?clear_query@DeleteDocRequest@server@mobile@@QEAAXXZ
?clear_query@FindAndModifyDocRequest@server@mobile@@QEAAXXZ
?clear_query@FindDocRequest@server@mobile@@QEAAXXZ
?clear_query@OperIndexRequest@server@mobile@@QEAAXXZ
?clear_query@RedisExecRequest@server@mobile@@QEAAXXZ
?clear_query@RedisMultiExecRequest@server@mobile@@QEAAXXZ
?clear_query@RedisPiplineExecRequest@server@mobile@@QEAAXXZ
?clear_query@UpdateDocRequest@server@mobile@@QEAAXXZ
?clear_random_padding_header@SessionKey@server@mobile@@QEAAXXZ
?clear_random_padding_tail@SessionKey@server@mobile@@QEAAXXZ
?clear_range_num@LocalIdMessage@server@mobile@@QEAAXXZ
?clear_read_pref@FindDocRequest@server@mobile@@QEAAXXZ
?clear_real_class_type@RealEntityCreateInfo@server@mobile@@QEAAXXZ
?clear_real_entityid@RealEntityCreateInfo@server@mobile@@QEAAXXZ
?clear_remove@FindAndModifyDocRequest@server@mobile@@QEAAXXZ
?clear_reply_docs@RedisExecResponse@server@mobile@@QEAAXXZ
?clear_reply_docs@RedisMultiExecResponse@server@mobile@@QEAAXXZ
?clear_reply_docs@RedisPiplineExecResponse@server@mobile@@QEAAXXZ
?clear_return_status@Gate2GameReturnVal@server@mobile@@QEAAXXZ
?clear_return_status@GateReturnVal@server@mobile@@QEAAXXZ
?clear_return_status@GmReturnVal@server@mobile@@QEAAXXZ
?clear_return_val@Gate2GameReturnVal@server@mobile@@QEAAXXZ
?clear_return_val@GmReturnVal@server@mobile@@QEAAXXZ
?clear_routes@CustomServiceMsg@server@mobile@@QEAAXXZ
?clear_routes@FilterUserDatas@server@mobile@@QEAAXXZ
?clear_routes@RegistMd5IndexMsg@server@mobile@@QEAAXXZ
?clear_script_content@Script@server@mobile@@QEAAXXZ
?clear_seed@SessionKey@server@mobile@@QEAAXXZ
?clear_seed@SessionSeed@server@mobile@@QEAAXXZ
?clear_seq_key@DeleteDocRequest@server@mobile@@QEAAXXZ
?clear_seq_key@FindAndModifyDocRequest@server@mobile@@QEAAXXZ
?clear_seq_key@FindDocRequest@server@mobile@@QEAAXXZ
?clear_seq_key@InsertDocRequest@server@mobile@@QEAAXXZ
?clear_seq_key@UpdateDocRequest@server@mobile@@QEAAXXZ
?clear_seqflag@DeleteDocRequest@server@mobile@@QEAAXXZ
?clear_seqflag@FindAndModifyDocRequest@server@mobile@@QEAAXXZ
?clear_seqflag@FindDocRequest@server@mobile@@QEAAXXZ
?clear_seqflag@InsertDocRequest@server@mobile@@QEAAXXZ
?clear_seqflag@UpdateDocRequest@server@mobile@@QEAAXXZ
?clear_server@ClientBindMsg@server@mobile@@QEAAXXZ
?clear_server_type@ServerMethod@server@mobile@@QEAAXXZ
?clear_service_info@CustomServiceMsg@server@mobile@@QEAAXXZ
?clear_service_name@CustomServiceInfo@server@mobile@@QEAAXXZ
?clear_services@ServiceInfos@server@mobile@@QEAAXXZ
?clear_session_key@SessionKey@server@mobile@@QEAAXXZ
?clear_sessionid@ClientInfo@server@mobile@@QEAAXXZ
?clear_skip@FindDocRequest@server@mobile@@QEAAXXZ
?clear_sort@FindAndModifyDocRequest@server@mobile@@QEAAXXZ
?clear_sort@FindDocRequest@server@mobile@@QEAAXXZ
?clear_soul_mailbox@SoulBindMsg@server@mobile@@QEAAXXZ
?clear_src_srv@RealEntityCreateInfo@server@mobile@@QEAAXXZ
?clear_srcmb@ForwardMessageHeader@server@mobile@@QEAAXXZ
?clear_status@CountDocReply@server@mobile@@QEAAXXZ
?clear_status@CreateCollectionReply@server@mobile@@QEAAXXZ
?clear_status@DbStatusMessage@server@mobile@@QEAAXXZ
?clear_status@DeleteDocReply@server@mobile@@QEAAXXZ
?clear_status@FindAndModifyDocReply@server@mobile@@QEAAXXZ
?clear_status@FindDocReply@server@mobile@@QEAAXXZ
?clear_status@InsertDocReply@server@mobile@@QEAAXXZ
?clear_status@OperIndexReply@server@mobile@@QEAAXXZ
?clear_status@RedisExecResponse@server@mobile@@QEAAXXZ
?clear_status@RedisMultiExecResponse@server@mobile@@QEAAXXZ
?clear_status@RedisPiplineExecResponse@server@mobile@@QEAAXXZ
?clear_status@RedisStatusMessage@server@mobile@@QEAAXXZ
?clear_status@RunProcedureReply@server@mobile@@QEAAXXZ
?clear_status@UpdateDocReply@server@mobile@@QEAAXXZ
?clear_strvalue@FilterDataObj@server@mobile@@QEAAXXZ
?clear_support_dc@SoulBindMsg@server@mobile@@QEAAXXZ
?clear_transfer_entity@EntityInfoHeader@server@mobile@@QEAAXXZ
?clear_type@Gate2GameReturnVal@server@mobile@@QEAAXXZ
?clear_type@GmReturnVal@server@mobile@@QEAAXXZ
?clear_type@OperIndexRequest@server@mobile@@QEAAXXZ
?clear_update@FindAndModifyDocRequest@server@mobile@@QEAAXXZ
?clear_upsert@FindAndModifyDocRequest@server@mobile@@QEAAXXZ
?clear_upset@UpdateDocRequest@server@mobile@@QEAAXXZ
?clear_userdatas@FilterUserDatas@server@mobile@@QEAAXXZ
?clear_userdatas@IGameClient@server@mobile@@UEAAXPEAVRpcController@protobuf@google@@PEBVFilterUserDatas@23@PEAVVoid@23@PEAVClosure@56@@Z
?clear_userdatas@IGameClient_Stub@server@mobile@@UEAAXPEAVRpcController@protobuf@google@@PEBVFilterUserDatas@23@PEAVVoid@23@PEAVClosure@56@@Z
?clear_value@GlobalData@server@mobile@@QEAAXXZ
?client_lose_connection@IGameService@server@mobile@@UEAAXPEAVRpcController@protobuf@google@@PEBVClientInfo@23@PEAVVoid@23@PEAVClosure@56@@Z
?client_lose_connection@IGameService_Stub@server@mobile@@UEAAXPEAVRpcController@protobuf@google@@PEBVClientInfo@23@PEAVVoid@23@PEAVClosure@56@@Z
?clientid@ClientInfo@server@mobile@@QEBAAEBV?$basic_string@DU?$char_traits@D@std@@V?$allocator@D@2@@std@@XZ
?clientid@ForwardMessageHeader@server@mobile@@QEBAAEBV?$basic_string@DU?$char_traits@D@std@@V?$allocator@D@2@@std@@XZ
?clientinfo@ClientBindMsg@server@mobile@@QEBAAEBVClientInfo@23@XZ
?clientinfo@EntityInfoHeader@server@mobile@@QEBAAEBVClientInfo@23@XZ
?clientinfo@GateMailbox@server@mobile@@QEBAAEBVClientInfo@23@XZ
?clientinfo@GateReturnVal@server@mobile@@QEBAAEBVClientInfo@23@XZ
?clientinfo@SoulBindMsg@server@mobile@@QEBAAEBVClientInfo@23@XZ
?clientinfo@SoulUnbindMsg@server@mobile@@QEBAAEBVClientInfo@23@XZ
?clientinfocache@RealEntityCreateInfo@server@mobile@@QEBAAEBV?$basic_string@DU?$char_traits@D@std@@V?$allocator@D@2@@std@@XZ
?cmcc@SoulBindMsg@server@mobile@@QEBAAEBV?$basic_string@DU?$char_traits@D@std@@V?$allocator@D@2@@std@@XZ
?collection@CountDocRequest@server@mobile@@QEBAAEBV?$basic_string@DU?$char_traits@D@std@@V?$allocator@D@2@@std@@XZ
?collection@CreateCollectionRequest@server@mobile@@QEBAAEBV?$basic_string@DU?$char_traits@D@std@@V?$allocator@D@2@@std@@XZ
?collection@DeleteDocRequest@server@mobile@@QEBAAEBV?$basic_string@DU?$char_traits@D@std@@V?$allocator@D@2@@std@@XZ
?collection@FindAndModifyDocRequest@server@mobile@@QEBAAEBV?$basic_string@DU?$char_traits@D@std@@V?$allocator@D@2@@std@@XZ
?collection@FindDocRequest@server@mobile@@QEBAAEBV?$basic_string@DU?$char_traits@D@std@@V?$allocator@D@2@@std@@XZ
?collection@InsertDocRequest@server@mobile@@QEBAAEBV?$basic_string@DU?$char_traits@D@std@@V?$allocator@D@2@@std@@XZ
?collection@OperIndexRequest@server@mobile@@QEBAAEBV?$basic_string@DU?$char_traits@D@std@@V?$allocator@D@2@@std@@XZ
?collection@UpdateDocRequest@server@mobile@@QEBAAEBV?$basic_string@DU?$char_traits@D@std@@V?$allocator@D@2@@std@@XZ
?connect_reply@IGameClient@server@mobile@@UEAAXPEAVRpcController@protobuf@google@@PEBVConnectServerReply@23@PEAVVoid@23@PEAVClosure@56@@Z
?connect_reply@IGameClient_Stub@server@mobile@@UEAAXPEAVRpcController@protobuf@google@@PEBVConnectServerReply@23@PEAVVoid@23@PEAVClosure@56@@Z
?connect_reply@IGateClient@server@mobile@@UEAAXPEAVRpcController@protobuf@google@@PEBVConnectServerReply@23@PEAVVoid@23@PEAVClosure@56@@Z
?connect_reply@IGateClient_Stub@server@mobile@@UEAAXPEAVRpcController@protobuf@google@@PEBVConnectServerReply@23@PEAVVoid@23@PEAVClosure@56@@Z
?connect_server@IGameService@server@mobile@@UEAAXPEAVRpcController@protobuf@google@@PEBVConnectServerRequest@23@PEAVVoid@23@PEAVClosure@56@@Z
?connect_server@IGameService_Stub@server@mobile@@UEAAXPEAVRpcController@protobuf@google@@PEBVConnectServerRequest@23@PEAVVoid@23@PEAVClosure@56@@Z
?connect_server@IGateService@server@mobile@@UEAAXPEAVRpcController@protobuf@google@@PEBVConnectServerRequest@23@PEAVVoid@23@PEAVClosure@56@@Z
?connect_server@IGateService_Stub@server@mobile@@UEAAXPEAVRpcController@protobuf@google@@PEBVConnectServerRequest@23@PEAVVoid@23@PEAVClosure@56@@Z
?content@RealEntityCreateInfo@server@mobile@@QEBAAEBV?$basic_string@DU?$char_traits@D@std@@V?$allocator@D@2@@std@@XZ
?count@CountDocReply@server@mobile@@QEBAHXZ
?create@ExtGroupTaskManager@Blast@Nv@@SAPEAV123@AEAVPxTaskManager@physx@@PEAVTkGroup@23@@Z
?create@ExtImpactDamageManager@Blast@Nv@@SAPEAV123@PEAVExtPxManager@23@UExtImpactSettings@23@@Z
?create@ExtPxManager@Blast@Nv@@SAPEAV123@AEAVPxPhysics@physx@@AEAVTkFramework@23@P6APEAVPxJoint@5@PEAVExtPxActor@23@AEBVPxTransform@5@230AEAVTkJoint@23@@Z_N@Z
?create@ExtPxStressSolver@Blast@Nv@@SAPEAV123@AEAVExtPxFamily@23@UExtStressSolverSettings@23@@Z
?create@ExtStressSolver@Blast@Nv@@SAPEAV123@AEAUNvBlastFamily@@UExtStressSolverSettings@23@@Z
?create_anywhere@EntityInfoHeader@server@mobile@@QEBAHXZ
?create_entity@IGameClient@server@mobile@@UEAAXPEAVRpcController@protobuf@google@@PEBVEntityInfo@23@PEAVVoid@23@PEAVClosure@56@@Z
?create_entity@IGameClient_Stub@server@mobile@@UEAAXPEAVRpcController@protobuf@google@@PEBVEntityInfo@23@PEAVVoid@23@PEAVClosure@56@@Z
?create_entity@IGameManager@server@mobile@@UEAAXPEAVRpcController@protobuf@google@@PEBVEntityInfo@23@PEAVVoid@23@PEAVClosure@56@@Z
?create_entity@IGameManagerClient@server@mobile@@UEAAXPEAVRpcController@protobuf@google@@PEBVEntityInfo@23@PEAVVoid@23@PEAVClosure@56@@Z
?create_entity@IGameManagerClient_Stub@server@mobile@@UEAAXPEAVRpcController@protobuf@google@@PEBVEntityInfo@23@PEAVVoid@23@PEAVClosure@56@@Z
?create_entity@IGameManager_Stub@server@mobile@@UEAAXPEAVRpcController@protobuf@google@@PEBVEntityInfo@23@PEAVVoid@23@PEAVClosure@56@@Z
?create_entity@IGateClient@server@mobile@@UEAAXPEAVRpcController@protobuf@google@@PEBVEntityInfo@23@PEAVVoid@23@PEAVClosure@56@@Z
?create_entity@IGateClient_Stub@server@mobile@@UEAAXPEAVRpcController@protobuf@google@@PEBVEntityInfo@23@PEAVVoid@23@PEAVClosure@56@@Z
?create_from_db@EntityInfoHeader@server@mobile@@QEBA_NXZ
?create_real_entity@IGameClient@server@mobile@@UEAAXPEAVRpcController@protobuf@google@@PEBVRealEntityCreateInfo@23@PEAVVoid@23@PEAVClosure@56@@Z
?create_real_entity@IGameClient_Stub@server@mobile@@UEAAXPEAVRpcController@protobuf@google@@PEBVRealEntityCreateInfo@23@PEAVVoid@23@PEAVClosure@56@@Z
?create_real_entity@IGameService@server@mobile@@UEAAXPEAVRpcController@protobuf@google@@PEBVRealEntityCreateInfo@23@PEAVVoid@23@PEAVClosure@56@@Z
?create_real_entity@IGameService_Stub@server@mobile@@UEAAXPEAVRpcController@protobuf@google@@PEBVRealEntityCreateInfo@23@PEAVVoid@23@PEAVClosure@56@@Z
?create_service@service_factory@async@@UEBA?AV?$shared_ptr@Viservice@async@@@boost@@W4service_type@2@PEAVconnection@2@@Z
?ctcc@SoulBindMsg@server@mobile@@QEBAAEBV?$basic_string@DU?$char_traits@D@std@@V?$allocator@D@2@@std@@XZ
?cucc@SoulBindMsg@server@mobile@@QEBAAEBV?$basic_string@DU?$char_traits@D@std@@V?$allocator@D@2@@std@@XZ
?custom_message@IGameClient@server@mobile@@UEAAXPEAVRpcController@protobuf@google@@PEBVCustomMessage@23@PEAVVoid@23@PEAVClosure@56@@Z
?custom_message@IGameClient_Stub@server@mobile@@UEAAXPEAVRpcController@protobuf@google@@PEBVCustomMessage@23@PEAVVoid@23@PEAVClosure@56@@Z
?custom_message@IGameService@server@mobile@@UEAAXPEAVRpcController@protobuf@google@@PEBVCustomMessage@23@PEAVVoid@23@PEAVClosure@56@@Z
?custom_message@IGameService_Stub@server@mobile@@UEAAXPEAVRpcController@protobuf@google@@PEBVCustomMessage@23@PEAVVoid@23@PEAVClosure@56@@Z
?custom_message@IGateClient@server@mobile@@UEAAXPEAVRpcController@protobuf@google@@PEBVCustomMessage@23@PEAVVoid@23@PEAVClosure@56@@Z
?custom_message@IGateClient_Stub@server@mobile@@UEAAXPEAVRpcController@protobuf@google@@PEBVCustomMessage@23@PEAVVoid@23@PEAVClosure@56@@Z
?custom_message@IGateService@server@mobile@@UEAAXPEAVRpcController@protobuf@google@@PEBVCustomMessage@23@PEAVVoid@23@PEAVClosure@56@@Z
?custom_message@IGateService_Stub@server@mobile@@UEAAXPEAVRpcController@protobuf@google@@PEBVCustomMessage@23@PEAVVoid@23@PEAVClosure@56@@Z
?custom_service_message@IGameService@server@mobile@@UEAAXPEAVRpcController@protobuf@google@@PEBVCustomServiceMsg@23@PEAVVoid@23@PEAVClosure@56@@Z
?custom_service_message@IGameService_Stub@server@mobile@@UEAAXPEAVRpcController@protobuf@google@@PEBVCustomServiceMsg@23@PEAVVoid@23@PEAVClosure@56@@Z
?custom_service_message_return@IGameClient@server@mobile@@UEAAXPEAVRpcController@protobuf@google@@PEBVCustomServiceMsg@23@PEAVVoid@23@PEAVClosure@56@@Z
?custom_service_message_return@IGameClient_Stub@server@mobile@@UEAAXPEAVRpcController@protobuf@google@@PEBVCustomServiceMsg@23@PEAVVoid@23@PEAVClosure@56@@Z
?db@CountDocRequest@server@mobile@@QEBAAEBV?$basic_string@DU?$char_traits@D@std@@V?$allocator@D@2@@std@@XZ
?db@CreateCollectionRequest@server@mobile@@QEBAAEBV?$basic_string@DU?$char_traits@D@std@@V?$allocator@D@2@@std@@XZ
?db@DeleteDocRequest@server@mobile@@QEBAAEBV?$basic_string@DU?$char_traits@D@std@@V?$allocator@D@2@@std@@XZ
?db@FindAndModifyDocRequest@server@mobile@@QEBAAEBV?$basic_string@DU?$char_traits@D@std@@V?$allocator@D@2@@std@@XZ
?db@FindDocRequest@server@mobile@@QEBAAEBV?$basic_string@DU?$char_traits@D@std@@V?$allocator@D@2@@std@@XZ
?db@InsertDocRequest@server@mobile@@QEBAAEBV?$basic_string@DU?$char_traits@D@std@@V?$allocator@D@2@@std@@XZ
?db@OperIndexRequest@server@mobile@@QEBAAEBV?$basic_string@DU?$char_traits@D@std@@V?$allocator@D@2@@std@@XZ
?db@RedisExecRequest@server@mobile@@QEBAHXZ
?db@RedisMultiExecRequest@server@mobile@@QEBAHXZ
?db@RedisPiplineExecRequest@server@mobile@@QEBAHXZ
?db@RunProcedureRequest@server@mobile@@QEBAAEBV?$basic_string@DU?$char_traits@D@std@@V?$allocator@D@2@@std@@XZ
?db@UpdateDocRequest@server@mobile@@QEBAAEBV?$basic_string@DU?$char_traits@D@std@@V?$allocator@D@2@@std@@XZ
?db_count_doc@IDbManager@server@mobile@@UEAAXPEAVRpcController@protobuf@google@@PEBVCountDocRequest@23@PEAVVoid@23@PEAVClosure@56@@Z
?db_count_doc@IDbManager_Stub@server@mobile@@UEAAXPEAVRpcController@protobuf@google@@PEBVCountDocRequest@23@PEAVVoid@23@PEAVClosure@56@@Z
?db_count_doc_reply@IDbManagerClient@server@mobile@@UEAAXPEAVRpcController@protobuf@google@@PEBVCountDocReply@23@PEAVVoid@23@PEAVClosure@56@@Z
?db_count_doc_reply@IDbManagerClient_Stub@server@mobile@@UEAAXPEAVRpcController@protobuf@google@@PEBVCountDocReply@23@PEAVVoid@23@PEAVClosure@56@@Z
?db_create_collection@IDbManager@server@mobile@@UEAAXPEAVRpcController@protobuf@google@@PEBVCreateCollectionRequest@23@PEAVVoid@23@PEAVClosure@56@@Z
?db_create_collection@IDbManager_Stub@server@mobile@@UEAAXPEAVRpcController@protobuf@google@@PEBVCreateCollectionRequest@23@PEAVVoid@23@PEAVClosure@56@@Z
?db_create_collection_reply@IDbManagerClient@server@mobile@@UEAAXPEAVRpcController@protobuf@google@@PEBVCreateCollectionReply@23@PEAVVoid@23@PEAVClosure@56@@Z
?db_create_collection_reply@IDbManagerClient_Stub@server@mobile@@UEAAXPEAVRpcController@protobuf@google@@PEBVCreateCollectionReply@23@PEAVVoid@23@PEAVClosure@56@@Z
?db_delete_doc@IDbManager@server@mobile@@UEAAXPEAVRpcController@protobuf@google@@PEBVDeleteDocRequest@23@PEAVVoid@23@PEAVClosure@56@@Z
?db_delete_doc@IDbManager_Stub@server@mobile@@UEAAXPEAVRpcController@protobuf@google@@PEBVDeleteDocRequest@23@PEAVVoid@23@PEAVClosure@56@@Z
?db_delete_doc_reply@IDbManagerClient@server@mobile@@UEAAXPEAVRpcController@protobuf@google@@PEBVDeleteDocReply@23@PEAVVoid@23@PEAVClosure@56@@Z
?db_delete_doc_reply@IDbManagerClient_Stub@server@mobile@@UEAAXPEAVRpcController@protobuf@google@@PEBVDeleteDocReply@23@PEAVVoid@23@PEAVClosure@56@@Z
?db_find_and_modify_doc@IDbManager@server@mobile@@UEAAXPEAVRpcController@protobuf@google@@PEBVFindAndModifyDocRequest@23@PEAVVoid@23@PEAVClosure@56@@Z
?db_find_and_modify_doc@IDbManager_Stub@server@mobile@@UEAAXPEAVRpcController@protobuf@google@@PEBVFindAndModifyDocRequest@23@PEAVVoid@23@PEAVClosure@56@@Z
?db_find_and_modify_doc_reply@IDbManagerClient@server@mobile@@UEAAXPEAVRpcController@protobuf@google@@PEBVFindAndModifyDocReply@23@PEAVVoid@23@PEAVClosure@56@@Z
?db_find_and_modify_doc_reply@IDbManagerClient_Stub@server@mobile@@UEAAXPEAVRpcController@protobuf@google@@PEBVFindAndModifyDocReply@23@PEAVVoid@23@PEAVClosure@56@@Z
?db_find_doc@IDbManager@server@mobile@@UEAAXPEAVRpcController@protobuf@google@@PEBVFindDocRequest@23@PEAVVoid@23@PEAVClosure@56@@Z
?db_find_doc@IDbManager_Stub@server@mobile@@UEAAXPEAVRpcController@protobuf@google@@PEBVFindDocRequest@23@PEAVVoid@23@PEAVClosure@56@@Z
?db_find_doc_reply@IDbManagerClient@server@mobile@@UEAAXPEAVRpcController@protobuf@google@@PEBVFindDocReply@23@PEAVVoid@23@PEAVClosure@56@@Z
?db_find_doc_reply@IDbManagerClient_Stub@server@mobile@@UEAAXPEAVRpcController@protobuf@google@@PEBVFindDocReply@23@PEAVVoid@23@PEAVClosure@56@@Z
?db_insert_doc@IDbManager@server@mobile@@UEAAXPEAVRpcController@protobuf@google@@PEBVInsertDocRequest@23@PEAVVoid@23@PEAVClosure@56@@Z
?db_insert_doc@IDbManager_Stub@server@mobile@@UEAAXPEAVRpcController@protobuf@google@@PEBVInsertDocRequest@23@PEAVVoid@23@PEAVClosure@56@@Z
?db_insert_doc_reply@IDbManagerClient@server@mobile@@UEAAXPEAVRpcController@protobuf@google@@PEBVInsertDocReply@23@PEAVVoid@23@PEAVClosure@56@@Z
?db_insert_doc_reply@IDbManagerClient_Stub@server@mobile@@UEAAXPEAVRpcController@protobuf@google@@PEBVInsertDocReply@23@PEAVVoid@23@PEAVClosure@56@@Z
?db_name@DbServerInfo@server@mobile@@QEBAAEBV?$basic_string@DU?$char_traits@D@std@@V?$allocator@D@2@@std@@XZ
?db_oper_index@IDbManager@server@mobile@@UEAAXPEAVRpcController@protobuf@google@@PEBVOperIndexRequest@23@PEAVVoid@23@PEAVClosure@56@@Z
?db_oper_index@IDbManager_Stub@server@mobile@@UEAAXPEAVRpcController@protobuf@google@@PEBVOperIndexRequest@23@PEAVVoid@23@PEAVClosure@56@@Z
?db_oper_index_reply@IDbManagerClient@server@mobile@@UEAAXPEAVRpcController@protobuf@google@@PEBVOperIndexReply@23@PEAVVoid@23@PEAVClosure@56@@Z
?db_oper_index_reply@IDbManagerClient_Stub@server@mobile@@UEAAXPEAVRpcController@protobuf@google@@PEBVOperIndexReply@23@PEAVVoid@23@PEAVClosure@56@@Z
?db_reload_proc@IDbManager@server@mobile@@UEAAXPEAVRpcController@protobuf@google@@PEBVVoid@23@PEAV723@PEAVClosure@56@@Z
?db_reload_proc@IDbManager_Stub@server@mobile@@UEAAXPEAVRpcController@protobuf@google@@PEBVVoid@23@PEAV723@PEAVClosure@56@@Z
?db_run_procedure@IDbManager@server@mobile@@UEAAXPEAVRpcController@protobuf@google@@PEBVRunProcedureRequest@23@PEAVVoid@23@PEAVClosure@56@@Z
?db_run_procedure@IDbManager_Stub@server@mobile@@UEAAXPEAVRpcController@protobuf@google@@PEBVRunProcedureRequest@23@PEAVVoid@23@PEAVClosure@56@@Z
?db_run_procedure_reply@IDbManagerClient@server@mobile@@UEAAXPEAVRpcController@protobuf@google@@PEBVRunProcedureReply@23@PEAVVoid@23@PEAVClosure@56@@Z
?db_run_procedure_reply@IDbManagerClient_Stub@server@mobile@@UEAAXPEAVRpcController@protobuf@google@@PEBVRunProcedureReply@23@PEAVVoid@23@PEAVClosure@56@@Z
?db_status@IDbManagerClient@server@mobile@@UEAAXPEAVRpcController@protobuf@google@@PEBVDbStatusMessage@23@PEAVVoid@23@PEAVClosure@56@@Z
?db_status@IDbManagerClient_Stub@server@mobile@@UEAAXPEAVRpcController@protobuf@google@@PEBVDbStatusMessage@23@PEAVVoid@23@PEAVClosure@56@@Z
?db_update_doc@IDbManager@server@mobile@@UEAAXPEAVRpcController@protobuf@google@@PEBVUpdateDocRequest@23@PEAVVoid@23@PEAVClosure@56@@Z
?db_update_doc@IDbManager_Stub@server@mobile@@UEAAXPEAVRpcController@protobuf@google@@PEBVUpdateDocRequest@23@PEAVVoid@23@PEAVClosure@56@@Z
?db_update_doc_reply@IDbManagerClient@server@mobile@@UEAAXPEAVRpcController@protobuf@google@@PEBVUpdateDocReply@23@PEAVVoid@23@PEAVClosure@56@@Z
?db_update_doc_reply@IDbManagerClient_Stub@server@mobile@@UEAAXPEAVRpcController@protobuf@google@@PEBVUpdateDocReply@23@PEAVVoid@23@PEAVClosure@56@@Z
?default_instance@ActiveCompress@server@mobile@@SAAEBV123@XZ
?default_instance@CallDBRequest@server@mobile@@SAAEBV123@XZ
?default_instance@CallDBResponse@server@mobile@@SAAEBV123@XZ
?default_instance@CallbackId@server@mobile@@SAAEBV123@XZ
?default_instance@ClientBindMsg@server@mobile@@SAAEBV123@XZ
?default_instance@ClientInfo@server@mobile@@SAAEBV123@XZ
?default_instance@CountDocReply@server@mobile@@SAAEBV123@XZ
?default_instance@CountDocRequest@server@mobile@@SAAEBV123@XZ
?default_instance@CreateCollectionReply@server@mobile@@SAAEBV123@XZ
?default_instance@CreateCollectionRequest@server@mobile@@SAAEBV123@XZ
?default_instance@CtrlType@server@mobile@@SAAEBV123@XZ
?default_instance@CustomServiceInfo@server@mobile@@SAAEBV123@XZ
?default_instance@CustomServiceMsg@server@mobile@@SAAEBV123@XZ
?default_instance@DbServerInfo@server@mobile@@SAAEBV123@XZ
?default_instance@DbStatusMessage@server@mobile@@SAAEBV123@XZ
?default_instance@DeleteDocReply@server@mobile@@SAAEBV123@XZ
?default_instance@DeleteDocRequest@server@mobile@@SAAEBV123@XZ
?default_instance@EncryptString@server@mobile@@SAAEBV123@XZ
?default_instance@EntityInfoHeader@server@mobile@@SAAEBV123@XZ
?default_instance@FilterDataObj@server@mobile@@SAAEBV123@XZ
?default_instance@FilterUserDatas@server@mobile@@SAAEBV123@XZ
?default_instance@FindAndModifyDocReply@server@mobile@@SAAEBV123@XZ
?default_instance@FindAndModifyDocRequest@server@mobile@@SAAEBV123@XZ
?default_instance@FindDocReply@server@mobile@@SAAEBV123@XZ
?default_instance@FindDocRequest@server@mobile@@SAAEBV123@XZ
?default_instance@ForwardMessageHeader@server@mobile@@SAAEBV123@XZ
?default_instance@GameLoad@server@mobile@@SAAEBV123@XZ
?default_instance@GameServerInfos@server@mobile@@SAAEBV123@XZ
?default_instance@Gate2GameReturnVal@server@mobile@@SAAEBV123@XZ
?default_instance@GateInfo@server@mobile@@SAAEBV123@XZ
?default_instance@GateMailbox@server@mobile@@SAAEBV123@XZ
?default_instance@GateMessage@server@mobile@@SAAEBV123@XZ
?default_instance@GateReturnVal@server@mobile@@SAAEBV123@XZ
?default_instance@GlobalData@server@mobile@@SAAEBV123@XZ
?default_instance@GlobalEntityRegMsg@server@mobile@@SAAEBV123@XZ
?default_instance@GlobalMessage@server@mobile@@SAAEBV123@XZ
?default_instance@GmReturnVal@server@mobile@@SAAEBV123@XZ
?default_instance@InsertDocReply@server@mobile@@SAAEBV123@XZ
?default_instance@InsertDocRequest@server@mobile@@SAAEBV123@XZ
?default_instance@LocalIdMessage@server@mobile@@SAAEBV123@XZ
?default_instance@MessageIp@server@mobile@@SAAEBV123@XZ
?default_instance@OperIndexReply@server@mobile@@SAAEBV123@XZ
?default_instance@OperIndexRequest@server@mobile@@SAAEBV123@XZ
?default_instance@RealEntityCreateInfo@server@mobile@@SAAEBV123@XZ
?default_instance@RedisExecRequest@server@mobile@@SAAEBV123@XZ
?default_instance@RedisExecResponse@server@mobile@@SAAEBV123@XZ
?default_instance@RedisMultiExecRequest@server@mobile@@SAAEBV123@XZ
?default_instance@RedisMultiExecResponse@server@mobile@@SAAEBV123@XZ
?default_instance@RedisPiplineExecRequest@server@mobile@@SAAEBV123@XZ
?default_instance@RedisPiplineExecResponse@server@mobile@@SAAEBV123@XZ
?default_instance@RedisStatusMessage@server@mobile@@SAAEBV123@XZ
?default_instance@RegistMd5IndexMsg@server@mobile@@SAAEBV123@XZ
?default_instance@RunProcedureReply@server@mobile@@SAAEBV123@XZ
?default_instance@RunProcedureRequest@server@mobile@@SAAEBV123@XZ
?default_instance@Script@server@mobile@@SAAEBV123@XZ
?default_instance@ServerMethod@server@mobile@@SAAEBV123@XZ
?default_instance@ServiceInfos@server@mobile@@SAAEBV123@XZ
?default_instance@SessionIsp@server@mobile@@SAAEBV123@XZ
?default_instance@SessionKey@server@mobile@@SAAEBV123@XZ
?default_instance@SessionSeed@server@mobile@@SAAEBV123@XZ
?default_instance@SoulBindMsg@server@mobile@@SAAEBV123@XZ
?default_instance@SoulUnbindMsg@server@mobile@@SAAEBV123@XZ
?default_instance@UpdateDocReply@server@mobile@@SAAEBV123@XZ
?default_instance@UpdateDocRequest@server@mobile@@SAAEBV123@XZ
?default_instance_@ActiveCompress@server@mobile@@0PEAV123@EA
?default_instance_@CallDBRequest@server@mobile@@0PEAV123@EA
?default_instance_@CallDBResponse@server@mobile@@0PEAV123@EA
?default_instance_@CallbackId@server@mobile@@0PEAV123@EA
?default_instance_@ClientBindMsg@server@mobile@@0PEAV123@EA
?default_instance_@ClientInfo@server@mobile@@0PEAV123@EA
?default_instance_@CountDocReply@server@mobile@@0PEAV123@EA
?default_instance_@CountDocRequest@server@mobile@@0PEAV123@EA
?default_instance_@CreateCollectionReply@server@mobile@@0PEAV123@EA
?default_instance_@CreateCollectionRequest@server@mobile@@0PEAV123@EA
?default_instance_@CtrlType@server@mobile@@0PEAV123@EA
?default_instance_@CustomServiceInfo@server@mobile@@0PEAV123@EA
?default_instance_@CustomServiceMsg@server@mobile@@0PEAV123@EA
?default_instance_@DbServerInfo@server@mobile@@0PEAV123@EA
?default_instance_@DbStatusMessage@server@mobile@@0PEAV123@EA
?default_instance_@DeleteDocReply@server@mobile@@0PEAV123@EA
?default_instance_@DeleteDocRequest@server@mobile@@0PEAV123@EA
?default_instance_@EncryptString@server@mobile@@0PEAV123@EA
?default_instance_@EntityInfoHeader@server@mobile@@0PEAV123@EA
?default_instance_@FilterDataObj@server@mobile@@0PEAV123@EA
?default_instance_@FilterUserDatas@server@mobile@@0PEAV123@EA
?default_instance_@FindAndModifyDocReply@server@mobile@@0PEAV123@EA
?default_instance_@FindAndModifyDocRequest@server@mobile@@0PEAV123@EA
?default_instance_@FindDocReply@server@mobile@@0PEAV123@EA
?default_instance_@FindDocRequest@server@mobile@@0PEAV123@EA
?default_instance_@ForwardMessageHeader@server@mobile@@0PEAV123@EA
?default_instance_@GameLoad@server@mobile@@0PEAV123@EA
?default_instance_@GameServerInfos@server@mobile@@0PEAV123@EA
?default_instance_@Gate2GameReturnVal@server@mobile@@0PEAV123@EA
?default_instance_@GateInfo@server@mobile@@0PEAV123@EA
?default_instance_@GateMailbox@server@mobile@@0PEAV123@EA
?default_instance_@GateMessage@server@mobile@@0PEAV123@EA
?default_instance_@GateReturnVal@server@mobile@@0PEAV123@EA
?default_instance_@GlobalData@server@mobile@@0PEAV123@EA
?default_instance_@GlobalEntityRegMsg@server@mobile@@0PEAV123@EA
?default_instance_@GlobalMessage@server@mobile@@0PEAV123@EA
?default_instance_@GmReturnVal@server@mobile@@0PEAV123@EA
?default_instance_@InsertDocReply@server@mobile@@0PEAV123@EA
?default_instance_@InsertDocRequest@server@mobile@@0PEAV123@EA
?default_instance_@LocalIdMessage@server@mobile@@0PEAV123@EA
?default_instance_@MessageIp@server@mobile@@0PEAV123@EA
?default_instance_@OperIndexReply@server@mobile@@0PEAV123@EA
?default_instance_@OperIndexRequest@server@mobile@@0PEAV123@EA
?default_instance_@RealEntityCreateInfo@server@mobile@@0PEAV123@EA
?default_instance_@RedisExecRequest@server@mobile@@0PEAV123@EA
?default_instance_@RedisExecResponse@server@mobile@@0PEAV123@EA
?default_instance_@RedisMultiExecRequest@server@mobile@@0PEAV123@EA
?default_instance_@RedisMultiExecResponse@server@mobile@@0PEAV123@EA
?default_instance_@RedisPiplineExecRequest@server@mobile@@0PEAV123@EA
?default_instance_@RedisPiplineExecResponse@server@mobile@@0PEAV123@EA
?default_instance_@RedisStatusMessage@server@mobile@@0PEAV123@EA
?default_instance_@RegistMd5IndexMsg@server@mobile@@0PEAV123@EA
?default_instance_@RunProcedureReply@server@mobile@@0PEAV123@EA
?default_instance_@RunProcedureRequest@server@mobile@@0PEAV123@EA
?default_instance_@Script@server@mobile@@0PEAV123@EA
?default_instance_@ServerMethod@server@mobile@@0PEAV123@EA
?default_instance_@ServiceInfos@server@mobile@@0PEAV123@EA
?default_instance_@SessionIsp@server@mobile@@0PEAV123@EA
?default_instance_@SessionKey@server@mobile@@0PEAV123@EA
?default_instance_@SessionSeed@server@mobile@@0PEAV123@EA
?default_instance_@SoulBindMsg@server@mobile@@0PEAV123@EA
?default_instance_@SoulUnbindMsg@server@mobile@@0PEAV123@EA
?default_instance_@UpdateDocReply@server@mobile@@0PEAV123@EA
?default_instance_@UpdateDocRequest@server@mobile@@0PEAV123@EA
?del_filter@@YAXH@Z
?del_global_data@IGameManager@server@mobile@@UEAAXPEAVRpcController@protobuf@google@@PEBVGlobalData@23@PEAVVoid@23@PEAVClosure@56@@Z
?del_global_data@IGameManagerClient@server@mobile@@UEAAXPEAVRpcController@protobuf@google@@PEBVGlobalData@23@PEAVVoid@23@PEAVClosure@56@@Z
?del_global_data@IGameManagerClient_Stub@server@mobile@@UEAAXPEAVRpcController@protobuf@google@@PEBVGlobalData@23@PEAVVoid@23@PEAVClosure@56@@Z
?del_global_data@IGameManager_Stub@server@mobile@@UEAAXPEAVRpcController@protobuf@google@@PEBVGlobalData@23@PEAVVoid@23@PEAVClosure@56@@Z
?desc@OperIndexRequest@server@mobile@@QEBAAEBV?$basic_string@DU?$char_traits@D@std@@V?$allocator@D@2@@std@@XZ
?descriptor@ActiveCompress@server@mobile@@SAPEBVDescriptor@protobuf@google@@XZ
?descriptor@CallDBRequest@server@mobile@@SAPEBVDescriptor@protobuf@google@@XZ
?descriptor@CallDBResponse@server@mobile@@SAPEBVDescriptor@protobuf@google@@XZ
?descriptor@CallbackId@server@mobile@@SAPEBVDescriptor@protobuf@google@@XZ
?descriptor@ClientBindMsg@server@mobile@@SAPEBVDescriptor@protobuf@google@@XZ
?descriptor@ClientInfo@server@mobile@@SAPEBVDescriptor@protobuf@google@@XZ
?descriptor@CountDocReply@server@mobile@@SAPEBVDescriptor@protobuf@google@@XZ
?descriptor@CountDocRequest@server@mobile@@SAPEBVDescriptor@protobuf@google@@XZ
?descriptor@CreateCollectionReply@server@mobile@@SAPEBVDescriptor@protobuf@google@@XZ
?descriptor@CreateCollectionRequest@server@mobile@@SAPEBVDescriptor@protobuf@google@@XZ
?descriptor@CtrlType@server@mobile@@SAPEBVDescriptor@protobuf@google@@XZ
?descriptor@CustomServiceInfo@server@mobile@@SAPEBVDescriptor@protobuf@google@@XZ
?descriptor@CustomServiceMsg@server@mobile@@SAPEBVDescriptor@protobuf@google@@XZ
?descriptor@DbServerInfo@server@mobile@@SAPEBVDescriptor@protobuf@google@@XZ
?descriptor@DbStatusMessage@server@mobile@@SAPEBVDescriptor@protobuf@google@@XZ
?descriptor@DeleteDocReply@server@mobile@@SAPEBVDescriptor@protobuf@google@@XZ
?descriptor@DeleteDocRequest@server@mobile@@SAPEBVDescriptor@protobuf@google@@XZ
?descriptor@EncryptString@server@mobile@@SAPEBVDescriptor@protobuf@google@@XZ
?descriptor@EntityInfoHeader@server@mobile@@SAPEBVDescriptor@protobuf@google@@XZ
?descriptor@FilterDataObj@server@mobile@@SAPEBVDescriptor@protobuf@google@@XZ
?descriptor@FilterUserDatas@server@mobile@@SAPEBVDescriptor@protobuf@google@@XZ
?descriptor@FindAndModifyDocReply@server@mobile@@SAPEBVDescriptor@protobuf@google@@XZ
?descriptor@FindAndModifyDocRequest@server@mobile@@SAPEBVDescriptor@protobuf@google@@XZ
?descriptor@FindDocReply@server@mobile@@SAPEBVDescriptor@protobuf@google@@XZ
?descriptor@FindDocRequest@server@mobile@@SAPEBVDescriptor@protobuf@google@@XZ
?descriptor@ForwardMessageHeader@server@mobile@@SAPEBVDescriptor@protobuf@google@@XZ
?descriptor@GameLoad@server@mobile@@SAPEBVDescriptor@protobuf@google@@XZ
?descriptor@GameServerInfos@server@mobile@@SAPEBVDescriptor@protobuf@google@@XZ
?descriptor@Gate2GameReturnVal@server@mobile@@SAPEBVDescriptor@protobuf@google@@XZ
?descriptor@GateInfo@server@mobile@@SAPEBVDescriptor@protobuf@google@@XZ
?descriptor@GateMailbox@server@mobile@@SAPEBVDescriptor@protobuf@google@@XZ
?descriptor@GateMessage@server@mobile@@SAPEBVDescriptor@protobuf@google@@XZ
?descriptor@GateReturnVal@server@mobile@@SAPEBVDescriptor@protobuf@google@@XZ
?descriptor@GlobalData@server@mobile@@SAPEBVDescriptor@protobuf@google@@XZ
?descriptor@GlobalEntityRegMsg@server@mobile@@SAPEBVDescriptor@protobuf@google@@XZ
?descriptor@GlobalMessage@server@mobile@@SAPEBVDescriptor@protobuf@google@@XZ
?descriptor@GmReturnVal@server@mobile@@SAPEBVDescriptor@protobuf@google@@XZ
?descriptor@IDbManager@server@mobile@@SAPEBVServiceDescriptor@protobuf@google@@XZ
?descriptor@IDbManagerClient@server@mobile@@SAPEBVServiceDescriptor@protobuf@google@@XZ
?descriptor@IGameClient@server@mobile@@SAPEBVServiceDescriptor@protobuf@google@@XZ
?descriptor@IGameManager@server@mobile@@SAPEBVServiceDescriptor@protobuf@google@@XZ
?descriptor@IGameManagerClient@server@mobile@@SAPEBVServiceDescriptor@protobuf@google@@XZ
?descriptor@IGameService@server@mobile@@SAPEBVServiceDescriptor@protobuf@google@@XZ
?descriptor@IGateClient@server@mobile@@SAPEBVServiceDescriptor@protobuf@google@@XZ
?descriptor@IGateService@server@mobile@@SAPEBVServiceDescriptor@protobuf@google@@XZ
?descriptor@InsertDocReply@server@mobile@@SAPEBVDescriptor@protobuf@google@@XZ
?descriptor@InsertDocRequest@server@mobile@@SAPEBVDescriptor@protobuf@google@@XZ
?descriptor@LocalIdMessage@server@mobile@@SAPEBVDescriptor@protobuf@google@@XZ
?descriptor@MessageIp@server@mobile@@SAPEBVDescriptor@protobuf@google@@XZ
?descriptor@OperIndexReply@server@mobile@@SAPEBVDescriptor@protobuf@google@@XZ
?descriptor@OperIndexRequest@server@mobile@@SAPEBVDescriptor@protobuf@google@@XZ
?descriptor@RealEntityCreateInfo@server@mobile@@SAPEBVDescriptor@protobuf@google@@XZ
?descriptor@RedisExecRequest@server@mobile@@SAPEBVDescriptor@protobuf@google@@XZ
?descriptor@RedisExecResponse@server@mobile@@SAPEBVDescriptor@protobuf@google@@XZ
?descriptor@RedisMultiExecRequest@server@mobile@@SAPEBVDescriptor@protobuf@google@@XZ
?descriptor@RedisMultiExecResponse@server@mobile@@SAPEBVDescriptor@protobuf@google@@XZ
?descriptor@RedisPiplineExecRequest@server@mobile@@SAPEBVDescriptor@protobuf@google@@XZ
?descriptor@RedisPiplineExecResponse@server@mobile@@SAPEBVDescriptor@protobuf@google@@XZ
?descriptor@RedisStatusMessage@server@mobile@@SAPEBVDescriptor@protobuf@google@@XZ
?descriptor@RegistMd5IndexMsg@server@mobile@@SAPEBVDescriptor@protobuf@google@@XZ
?descriptor@RunProcedureReply@server@mobile@@SAPEBVDescriptor@protobuf@google@@XZ
?descriptor@RunProcedureRequest@server@mobile@@SAPEBVDescriptor@protobuf@google@@XZ
?descriptor@Script@server@mobile@@SAPEBVDescriptor@protobuf@google@@XZ
?descriptor@ServerMethod@server@mobile@@SAPEBVDescriptor@protobuf@google@@XZ
?descriptor@ServiceInfos@server@mobile@@SAPEBVDescriptor@protobuf@google@@XZ
?descriptor@SessionIsp@server@mobile@@SAPEBVDescriptor@protobuf@google@@XZ
?descriptor@SessionKey@server@mobile@@SAPEBVDescriptor@protobuf@google@@XZ
?descriptor@SessionSeed@server@mobile@@SAPEBVDescriptor@protobuf@google@@XZ
?descriptor@SoulBindMsg@server@mobile@@SAPEBVDescriptor@protobuf@google@@XZ
?descriptor@SoulUnbindMsg@server@mobile@@SAPEBVDescriptor@protobuf@google@@XZ
?descriptor@UpdateDocReply@server@mobile@@SAPEBVDescriptor@protobuf@google@@XZ
?descriptor@UpdateDocRequest@server@mobile@@SAPEBVDescriptor@protobuf@google@@XZ
?destroy_entity@IGameClient@server@mobile@@UEAAXPEAVRpcController@protobuf@google@@PEBVEntityInfo@23@PEAVVoid@23@PEAVClosure@56@@Z
?destroy_entity@IGameClient_Stub@server@mobile@@UEAAXPEAVRpcController@protobuf@google@@PEBVEntityInfo@23@PEAVVoid@23@PEAVClosure@56@@Z
?destroy_entity@IGateClient@server@mobile@@UEAAXPEAVRpcController@protobuf@google@@PEBVEntityInfo@23@PEAVVoid@23@PEAVClosure@56@@Z
?destroy_entity@IGateClient_Stub@server@mobile@@UEAAXPEAVRpcController@protobuf@google@@PEBVEntityInfo@23@PEAVVoid@23@PEAVClosure@56@@Z
?disable_ksm@@YAXXZ
?disconnect_client@IGameClient@server@mobile@@UEAAXPEAVRpcController@protobuf@google@@PEBVClientInfo@23@PEAVVoid@23@PEAVClosure@56@@Z
?disconnect_client@IGameClient_Stub@server@mobile@@UEAAXPEAVRpcController@protobuf@google@@PEBVClientInfo@23@PEAVVoid@23@PEAVClosure@56@@Z
?dispatch_filter_message@IGameClient@server@mobile@@UEAAXPEAVRpcController@protobuf@google@@PEBVFilterMessage@23@PEAVVoid@23@PEAVClosure@56@@Z
?dispatch_filter_message@IGameClient_Stub@server@mobile@@UEAAXPEAVRpcController@protobuf@google@@PEBVFilterMessage@23@PEAVVoid@23@PEAVClosure@56@@Z
?dispatch_filter_message@IGateClient@server@mobile@@UEAAXPEAVRpcController@protobuf@google@@PEBVFilterMessage@23@PEAVVoid@23@PEAVClosure@56@@Z
?dispatch_filter_message@IGateClient_Stub@server@mobile@@UEAAXPEAVRpcController@protobuf@google@@PEBVFilterMessage@23@PEAVVoid@23@PEAVClosure@56@@Z
?dispatch_rpc_filter@@YA_KW4service_type@async@@_KAEBV?$basic_string@DU?$char_traits@D@std@@V?$allocator@D@2@@std@@AEBVtuple@python@boost@@@Z
?do_call_rpc_method@service@async@@UEAAXGPEAVRpcController@protobuf@google@@V?$shared_ptr@VMessage@protobuf@google@@@boost@@@Z
?do_enable_compressor@service@async@@UEAAX_NE@Z
?do_enable_encrypter@service@async@@UEAAXAEBV?$basic_string@DU?$char_traits@D@std@@V?$allocator@D@2@@std@@E@Z
?doc@FindAndModifyDocReply@server@mobile@@QEBAAEBV?$basic_string@DU?$char_traits@D@std@@V?$allocator@D@2@@std@@XZ
?doc@InsertDocRequest@server@mobile@@QEBAAEBV?$basic_string@DU?$char_traits@D@std@@V?$allocator@D@2@@std@@XZ
?doc@RunProcedureReply@server@mobile@@QEBAAEBV?$basic_string@DU?$char_traits@D@std@@V?$allocator@D@2@@std@@XZ
?doc@UpdateDocRequest@server@mobile@@QEBAAEBV?$basic_string@DU?$char_traits@D@std@@V?$allocator@D@2@@std@@XZ
?docs@FindDocReply@server@mobile@@QEBAAEBV?$RepeatedPtrField@V?$basic_string@DU?$char_traits@D@std@@V?$allocator@D@2@@std@@@protobuf@google@@XZ
?docs@FindDocReply@server@mobile@@QEBAAEBV?$basic_string@DU?$char_traits@D@std@@V?$allocator@D@2@@std@@H@Z
?docs_size@FindDocReply@server@mobile@@QEBAHXZ
?dst_server@EntityInfoHeader@server@mobile@@QEBAAEBVServerInfo@23@XZ
?dst_srv@RealEntityCreateInfo@server@mobile@@QEBAAEBVServerInfo@23@XZ
?dstmb@ForwardMessageHeader@server@mobile@@QEBAAEBVEntityMailbox@23@XZ
?dual_channel_message@IGateClient@server@mobile@@UEAAXPEAVRpcController@protobuf@google@@PEBVDCMessage@23@PEAVVoid@23@PEAVClosure@56@@Z
?dual_channel_message@IGateClient_Stub@server@mobile@@UEAAXPEAVRpcController@protobuf@google@@PEBVDCMessage@23@PEAVVoid@23@PEAVClosure@56@@Z
?dual_channel_message@IGateService@server@mobile@@UEAAXPEAVRpcController@protobuf@google@@PEBVDCMessage@23@PEAVVoid@23@PEAVClosure@56@@Z
?dual_channel_message@IGateService_Stub@server@mobile@@UEAAXPEAVRpcController@protobuf@google@@PEBVDCMessage@23@PEAVVoid@23@PEAVClosure@56@@Z
?enable_ksm@@YAXXZ
?encryptstr@EncryptString@server@mobile@@QEBAAEBV?$basic_string@DU?$char_traits@D@std@@V?$allocator@D@2@@std@@XZ
?entity_message@IGameClient@server@mobile@@UEAAXPEAVRpcController@protobuf@google@@PEBVEntityMessage@23@PEAVVoid@23@PEAVClosure@56@@Z
?entity_message@IGameClient_Stub@server@mobile@@UEAAXPEAVRpcController@protobuf@google@@PEBVEntityMessage@23@PEAVVoid@23@PEAVClosure@56@@Z
?entity_message@IGameService@server@mobile@@UEAAXPEAVRpcController@protobuf@google@@PEBVEntityMessage@23@PEAVVoid@23@PEAVClosure@56@@Z
?entity_message@IGameService_Stub@server@mobile@@UEAAXPEAVRpcController@protobuf@google@@PEBVEntityMessage@23@PEAVVoid@23@PEAVClosure@56@@Z
?entity_message@IGateClient@server@mobile@@UEAAXPEAVRpcController@protobuf@google@@PEBVEntityMessage@23@PEAVVoid@23@PEAVClosure@56@@Z
?entity_message@IGateClient_Stub@server@mobile@@UEAAXPEAVRpcController@protobuf@google@@PEBVEntityMessage@23@PEAVVoid@23@PEAVClosure@56@@Z
?entity_message@IGateService@server@mobile@@UEAAXPEAVRpcController@protobuf@google@@PEBVEntityMessage@23@PEAVVoid@23@PEAVClosure@56@@Z
?entity_message@IGateService_Stub@server@mobile@@UEAAXPEAVRpcController@protobuf@google@@PEBVEntityMessage@23@PEAVVoid@23@PEAVClosure@56@@Z
?entity_uniq_name@GlobalEntityRegMsg@server@mobile@@QEBAAEBV?$basic_string@DU?$char_traits@D@std@@V?$allocator@D@2@@std@@XZ
?entityid@ClientBindMsg@server@mobile@@QEBAAEBV?$basic_string@DU?$char_traits@D@std@@V?$allocator@D@2@@std@@XZ
?entityid@GateMailbox@server@mobile@@QEBAAEBV?$basic_string@DU?$char_traits@D@std@@V?$allocator@D@2@@std@@XZ
?erase_userdatas@IGameClient@server@mobile@@UEAAXPEAVRpcController@protobuf@google@@PEBVFilterUserDatas@23@PEAVVoid@23@PEAVClosure@56@@Z
?erase_userdatas@IGameClient_Stub@server@mobile@@UEAAXPEAVRpcController@protobuf@google@@PEBVFilterUserDatas@23@PEAVVoid@23@PEAVClosure@56@@Z
?error_msg@Gate2GameReturnVal@server@mobile@@QEBAAEBV?$basic_string@DU?$char_traits@D@std@@V?$allocator@D@2@@std@@XZ
?error_msg@GmReturnVal@server@mobile@@QEBAAEBV?$basic_string@DU?$char_traits@D@std@@V?$allocator@D@2@@std@@XZ
?fields@FindAndModifyDocRequest@server@mobile@@QEBAAEBV?$basic_string@DU?$char_traits@D@std@@V?$allocator@D@2@@std@@XZ
?fields@FindDocRequest@server@mobile@@QEBAAEBV?$basic_string@DU?$char_traits@D@std@@V?$allocator@D@2@@std@@XZ
?forward_aoi_info@IGameClient@server@mobile@@UEAAXPEAVRpcController@protobuf@google@@PEBVForwardAoiInfo@23@PEAVVoid@23@PEAVClosure@56@@Z
?forward_aoi_info@IGameClient_Stub@server@mobile@@UEAAXPEAVRpcController@protobuf@google@@PEBVForwardAoiInfo@23@PEAVVoid@23@PEAVClosure@56@@Z
?forward_aoi_info@IGateClient@server@mobile@@UEAAXPEAVRpcController@protobuf@google@@PEBVForwardAoiInfo@23@PEAVVoid@23@PEAVClosure@56@@Z
?forward_aoi_info@IGateClient_Stub@server@mobile@@UEAAXPEAVRpcController@protobuf@google@@PEBVForwardAoiInfo@23@PEAVVoid@23@PEAVClosure@56@@Z
?forward_aoi_pos_info@IGameService@server@mobile@@UEAAXPEAVRpcController@protobuf@google@@PEBVForwardAoiInfo@23@PEAVVoid@23@PEAVClosure@56@@Z
?forward_aoi_pos_info@IGameService_Stub@server@mobile@@UEAAXPEAVRpcController@protobuf@google@@PEBVForwardAoiInfo@23@PEAVVoid@23@PEAVClosure@56@@Z
?forward_aoi_pos_info@IGateService@server@mobile@@UEAAXPEAVRpcController@protobuf@google@@PEBVForwardAoiInfo@23@PEAVVoid@23@PEAVClosure@56@@Z
?forward_aoi_pos_info@IGateService_Stub@server@mobile@@UEAAXPEAVRpcController@protobuf@google@@PEBVForwardAoiInfo@23@PEAVVoid@23@PEAVClosure@56@@Z
?forward_entity_message@IGameClient@server@mobile@@UEAAXPEAVRpcController@protobuf@google@@PEBVEntityMessage@23@PEAVVoid@23@PEAVClosure@56@@Z
?forward_entity_message@IGameClient_Stub@server@mobile@@UEAAXPEAVRpcController@protobuf@google@@PEBVEntityMessage@23@PEAVVoid@23@PEAVClosure@56@@Z
?forward_entity_message@IGameManager@server@mobile@@UEAAXPEAVRpcController@protobuf@google@@PEBVEntityMessage@23@PEAVVoid@23@PEAVClosure@56@@Z
?forward_entity_message@IGameManager_Stub@server@mobile@@UEAAXPEAVRpcController@protobuf@google@@PEBVEntityMessage@23@PEAVVoid@23@PEAVClosure@56@@Z
?forward_entity_message@IGameService@server@mobile@@UEAAXPEAVRpcController@protobuf@google@@PEBVEntityMessage@23@PEAVVoid@23@PEAVClosure@56@@Z
?forward_entity_message@IGameService_Stub@server@mobile@@UEAAXPEAVRpcController@protobuf@google@@PEBVEntityMessage@23@PEAVVoid@23@PEAVClosure@56@@Z
?forward_service_message@IGameClient@server@mobile@@UEAAXPEAVRpcController@protobuf@google@@PEBVServiceMessage@23@PEAVVoid@23@PEAVClosure@56@@Z
?forward_service_message@IGameClient_Stub@server@mobile@@UEAAXPEAVRpcController@protobuf@google@@PEBVServiceMessage@23@PEAVVoid@23@PEAVClosure@56@@Z
?forward_service_message@IGameService@server@mobile@@UEAAXPEAVRpcController@protobuf@google@@PEBVServiceMessage@23@PEAVVoid@23@PEAVClosure@56@@Z
?forward_service_message@IGameService_Stub@server@mobile@@UEAAXPEAVRpcController@protobuf@google@@PEBVServiceMessage@23@PEAVVoid@23@PEAVClosure@56@@Z
?g_PlayingID@SoundEngine@AK@@3JC
?g_pAssertHook@@3P6AXPEBD0H@ZEA
?g_pRTPCMgr@@3PEAVCAkRTPCMgr@@EA
?g_pRegistryMgr@@3PEAVCAkRegistryMgr@@EA
?g_pSwitchMgr@@3PEAVCAkSwitchMgr@@EA
?game_callback@IGameManager@server@mobile@@UEAAXPEAVRpcController@protobuf@google@@PEBVGmReturnVal@23@PEAVVoid@23@PEAVClosure@56@@Z
?game_callback@IGameManager_Stub@server@mobile@@UEAAXPEAVRpcController@protobuf@google@@PEBVGmReturnVal@23@PEAVVoid@23@PEAVClosure@56@@Z
?gamemanager_callback@IGameManagerClient@server@mobile@@UEAAXPEAVRpcController@protobuf@google@@PEBVGmReturnVal@23@PEAVVoid@23@PEAVClosure@56@@Z
?gamemanager_callback@IGameManagerClient_Stub@server@mobile@@UEAAXPEAVRpcController@protobuf@google@@PEBVGmReturnVal@23@PEAVVoid@23@PEAVClosure@56@@Z
?gameservers@GameServerInfos@server@mobile@@QEBAAEBV?$RepeatedPtrField@VServerInfo@server@mobile@@@protobuf@google@@XZ
?gameservers@GameServerInfos@server@mobile@@QEBAAEBVServerInfo@23@H@Z
?gameservers_size@GameServerInfos@server@mobile@@QEBAHXZ
?gate_callback@IGameService@server@mobile@@UEAAXPEAVRpcController@protobuf@google@@PEBVGate2GameReturnVal@23@PEAVVoid@23@PEAVClosure@56@@Z
?gate_callback@IGameService_Stub@server@mobile@@UEAAXPEAVRpcController@protobuf@google@@PEBVGate2GameReturnVal@23@PEAVVoid@23@PEAVClosure@56@@Z
?gate_cpp@@YA_NXZ
?gate_method@IGameClient@server@mobile@@UEAAXPEAVRpcController@protobuf@google@@PEBVGateMessage@23@PEAVVoid@23@PEAVClosure@56@@Z
?gate_method@IGameClient_Stub@server@mobile@@UEAAXPEAVRpcController@protobuf@google@@PEBVGateMessage@23@PEAVVoid@23@PEAVClosure@56@@Z
?gateid@ClientInfo@server@mobile@@QEBAAEBV?$basic_string@DU?$char_traits@D@std@@V?$allocator@D@2@@std@@XZ
?gateid@GateInfo@server@mobile@@QEBAAEBV?$basic_string@DU?$char_traits@D@std@@V?$allocator@D@2@@std@@XZ
?getIterationsPerFrame@ExtStressSolver@Blast@Nv@@QEBAIXZ
?getIterationsPerFrame@ExtStressSolver@Blast@Nv@@SAIAEBUExtStressSolverSettings@23@I@Z
?get_flow_info@service@async@@UEAA?BV?$basic_string@DU?$char_traits@D@std@@V?$allocator@D@2@@std@@XZ
?get_gameservers_info@IGameManager@server@mobile@@UEAAXPEAVRpcController@protobuf@google@@PEBVVoid@23@PEAV723@PEAVClosure@56@@Z
?get_gameservers_info@IGameManager_Stub@server@mobile@@UEAAXPEAVRpcController@protobuf@google@@PEBVVoid@23@PEAV723@PEAVClosure@56@@Z
?get_login_crypter@service_manager@async@@QEAAPEAV?$lock_free_stack_node@Vlogin_key_encrypter@async@@@2@XZ
?get_service@service_manager@async@@QEAA?AV?$shared_ptr@Viservice@async@@@boost@@W4service_type@2@PEAVconnection@2@@Z
?get_service_factory@service_manager@async@@QEAA?AV?$shared_ptr@Viservice_factory@async@@@boost@@XZ
?global_data@IGameManager@server@mobile@@UEAAXPEAVRpcController@protobuf@google@@PEBVGlobalData@23@PEAVVoid@23@PEAVClosure@56@@Z
?global_data@IGameManagerClient@server@mobile@@UEAAXPEAVRpcController@protobuf@google@@PEBVGlobalData@23@PEAVVoid@23@PEAVClosure@56@@Z
?global_data@IGameManagerClient_Stub@server@mobile@@UEAAXPEAVRpcController@protobuf@google@@PEBVGlobalData@23@PEAVVoid@23@PEAVClosure@56@@Z
?global_data@IGameManager_Stub@server@mobile@@UEAAXPEAVRpcController@protobuf@google@@PEBVGlobalData@23@PEAVVoid@23@PEAVClosure@56@@Z
?global_entity_message@IGameClient@server@mobile@@UEAAXPEAVRpcController@protobuf@google@@PEBVGlobalEntityMessage@23@PEAVVoid@23@PEAVClosure@56@@Z
?global_entity_message@IGameClient_Stub@server@mobile@@UEAAXPEAVRpcController@protobuf@google@@PEBVGlobalEntityMessage@23@PEAVVoid@23@PEAVClosure@56@@Z
?global_entity_message@IGameManager@server@mobile@@UEAAXPEAVRpcController@protobuf@google@@PEBVGlobalEntityMessage@23@PEAVVoid@23@PEAVClosure@56@@Z
?global_entity_message@IGameManagerClient@server@mobile@@UEAAXPEAVRpcController@protobuf@google@@PEBVGlobalEntityMessage@23@PEAVVoid@23@PEAVClosure@56@@Z
?global_entity_message@IGameManagerClient_Stub@server@mobile@@UEAAXPEAVRpcController@protobuf@google@@PEBVGlobalEntityMessage@23@PEAVVoid@23@PEAVClosure@56@@Z
?global_entity_message@IGameManager_Stub@server@mobile@@UEAAXPEAVRpcController@protobuf@google@@PEBVGlobalEntityMessage@23@PEAVVoid@23@PEAVClosure@56@@Z
?global_message@IGameManager@server@mobile@@UEAAXPEAVRpcController@protobuf@google@@PEBVGlobalMessage@23@PEAVVoid@23@PEAVClosure@56@@Z
?global_message@IGameManagerClient@server@mobile@@UEAAXPEAVRpcController@protobuf@google@@PEBVGlobalMessage@23@PEAVVoid@23@PEAVClosure@56@@Z
?global_message@IGameManagerClient_Stub@server@mobile@@UEAAXPEAVRpcController@protobuf@google@@PEBVGlobalMessage@23@PEAVVoid@23@PEAVClosure@56@@Z
?global_message@IGameManager_Stub@server@mobile@@UEAAXPEAVRpcController@protobuf@google@@PEBVGlobalMessage@23@PEAVVoid@23@PEAVClosure@56@@Z
?handler_size@@YA_KW4service_type@async@@@Z
?has_active_stream_str@ActiveCompress@server@mobile@@QEBA_NXZ
?has_args@CallDBRequest@server@mobile@@QEBA_NXZ
?has_args@CallDBResponse@server@mobile@@QEBA_NXZ
?has_args@RedisExecRequest@server@mobile@@QEBA_NXZ
?has_args@RunProcedureRequest@server@mobile@@QEBA_NXZ
?has_avatar_mailbox@SoulBindMsg@server@mobile@@QEBA_NXZ
?has_begin@LocalIdMessage@server@mobile@@QEBA_NXZ
?has_callback_id@CallDBRequest@server@mobile@@QEBA_NXZ
?has_callback_id@CallDBResponse@server@mobile@@QEBA_NXZ
?has_callback_id@CallbackId@server@mobile@@QEBA_NXZ
?has_callback_id@CountDocReply@server@mobile@@QEBA_NXZ
?has_callback_id@CountDocRequest@server@mobile@@QEBA_NXZ
?has_callback_id@CreateCollectionReply@server@mobile@@QEBA_NXZ
?has_callback_id@CreateCollectionRequest@server@mobile@@QEBA_NXZ
?has_callback_id@DeleteDocReply@server@mobile@@QEBA_NXZ
?has_callback_id@DeleteDocRequest@server@mobile@@QEBA_NXZ
?has_callback_id@EntityInfoHeader@server@mobile@@QEBA_NXZ
?has_callback_id@FindAndModifyDocReply@server@mobile@@QEBA_NXZ
?has_callback_id@FindAndModifyDocRequest@server@mobile@@QEBA_NXZ
?has_callback_id@FindDocReply@server@mobile@@QEBA_NXZ
?has_callback_id@FindDocRequest@server@mobile@@QEBA_NXZ
?has_callback_id@ForwardMessageHeader@server@mobile@@QEBA_NXZ
?has_callback_id@Gate2GameReturnVal@server@mobile@@QEBA_NXZ
?has_callback_id@GlobalEntityRegMsg@server@mobile@@QEBA_NXZ
?has_callback_id@GmReturnVal@server@mobile@@QEBA_NXZ
?has_callback_id@InsertDocReply@server@mobile@@QEBA_NXZ
?has_callback_id@InsertDocRequest@server@mobile@@QEBA_NXZ
?has_callback_id@OperIndexReply@server@mobile@@QEBA_NXZ
?has_callback_id@OperIndexRequest@server@mobile@@QEBA_NXZ
?has_callback_id@RedisExecRequest@server@mobile@@QEBA_NXZ
?has_callback_id@RedisExecResponse@server@mobile@@QEBA_NXZ
?has_callback_id@RedisMultiExecRequest@server@mobile@@QEBA_NXZ
?has_callback_id@RedisMultiExecResponse@server@mobile@@QEBA_NXZ
?has_callback_id@RedisPiplineExecRequest@server@mobile@@QEBA_NXZ
?has_callback_id@RedisPiplineExecResponse@server@mobile@@QEBA_NXZ
?has_callback_id@RunProcedureReply@server@mobile@@QEBA_NXZ
?has_callback_id@RunProcedureRequest@server@mobile@@QEBA_NXZ
?has_callback_id@SoulBindMsg@server@mobile@@QEBA_NXZ
?has_callback_id@SoulUnbindMsg@server@mobile@@QEBA_NXZ
?has_callback_id@UpdateDocReply@server@mobile@@QEBA_NXZ
?has_callback_id@UpdateDocRequest@server@mobile@@QEBA_NXZ
?has_clientid@ClientInfo@server@mobile@@QEBA_NXZ
?has_clientid@ForwardMessageHeader@server@mobile@@QEBA_NXZ
?has_clientinfo@ClientBindMsg@server@mobile@@QEBA_NXZ
?has_clientinfo@EntityInfoHeader@server@mobile@@QEBA_NXZ
?has_clientinfo@GateMailbox@server@mobile@@QEBA_NXZ
?has_clientinfo@GateReturnVal@server@mobile@@QEBA_NXZ
?has_clientinfo@SoulBindMsg@server@mobile@@QEBA_NXZ
?has_clientinfo@SoulUnbindMsg@server@mobile@@QEBA_NXZ
?has_clientinfocache@RealEntityCreateInfo@server@mobile@@QEBA_NXZ
?has_cmcc@SoulBindMsg@server@mobile@@QEBA_NXZ
?has_collection@CountDocRequest@server@mobile@@QEBA_NXZ
?has_collection@CreateCollectionRequest@server@mobile@@QEBA_NXZ
?has_collection@DeleteDocRequest@server@mobile@@QEBA_NXZ
?has_collection@FindAndModifyDocRequest@server@mobile@@QEBA_NXZ
?has_collection@FindDocRequest@server@mobile@@QEBA_NXZ
?has_collection@InsertDocRequest@server@mobile@@QEBA_NXZ
?has_collection@OperIndexRequest@server@mobile@@QEBA_NXZ
?has_collection@UpdateDocRequest@server@mobile@@QEBA_NXZ
?has_content@RealEntityCreateInfo@server@mobile@@QEBA_NXZ
?has_count@CountDocReply@server@mobile@@QEBA_NXZ
?has_create_anywhere@EntityInfoHeader@server@mobile@@QEBA_NXZ
?has_create_from_db@EntityInfoHeader@server@mobile@@QEBA_NXZ
?has_ctcc@SoulBindMsg@server@mobile@@QEBA_NXZ
?has_cucc@SoulBindMsg@server@mobile@@QEBA_NXZ
?has_db@CountDocRequest@server@mobile@@QEBA_NXZ
?has_db@CreateCollectionRequest@server@mobile@@QEBA_NXZ
?has_db@DeleteDocRequest@server@mobile@@QEBA_NXZ
?has_db@FindAndModifyDocRequest@server@mobile@@QEBA_NXZ
?has_db@FindDocRequest@server@mobile@@QEBA_NXZ
?has_db@InsertDocRequest@server@mobile@@QEBA_NXZ
?has_db@OperIndexRequest@server@mobile@@QEBA_NXZ
?has_db@RedisExecRequest@server@mobile@@QEBA_NXZ
?has_db@RedisMultiExecRequest@server@mobile@@QEBA_NXZ
?has_db@RedisPiplineExecRequest@server@mobile@@QEBA_NXZ
?has_db@RunProcedureRequest@server@mobile@@QEBA_NXZ
?has_db@UpdateDocRequest@server@mobile@@QEBA_NXZ
?has_db_name@DbServerInfo@server@mobile@@QEBA_NXZ
?has_desc@OperIndexRequest@server@mobile@@QEBA_NXZ
?has_doc@FindAndModifyDocReply@server@mobile@@QEBA_NXZ
?has_doc@InsertDocRequest@server@mobile@@QEBA_NXZ
?has_doc@RunProcedureReply@server@mobile@@QEBA_NXZ
?has_doc@UpdateDocRequest@server@mobile@@QEBA_NXZ
?has_dst_server@EntityInfoHeader@server@mobile@@QEBA_NXZ
?has_dst_srv@RealEntityCreateInfo@server@mobile@@QEBA_NXZ
?has_dstmb@ForwardMessageHeader@server@mobile@@QEBA_NXZ
?has_encryptstr@EncryptString@server@mobile@@QEBA_NXZ
?has_entity_uniq_name@GlobalEntityRegMsg@server@mobile@@QEBA_NXZ
?has_entityid@ClientBindMsg@server@mobile@@QEBA_NXZ
?has_entityid@GateMailbox@server@mobile@@QEBA_NXZ
?has_error_msg@Gate2GameReturnVal@server@mobile@@QEBA_NXZ
?has_error_msg@GmReturnVal@server@mobile@@QEBA_NXZ
?has_fields@FindAndModifyDocRequest@server@mobile@@QEBA_NXZ
?has_fields@FindDocRequest@server@mobile@@QEBA_NXZ
?has_gateid@ClientInfo@server@mobile@@QEBA_NXZ
?has_gateid@GateInfo@server@mobile@@QEBA_NXZ
?has_hint@FindDocRequest@server@mobile@@QEBA_NXZ
?has_id@CustomServiceInfo@server@mobile@@QEBA_NXZ
?has_independent@SoulBindMsg@server@mobile@@QEBA_NXZ
?has_insert_id@InsertDocReply@server@mobile@@QEBA_NXZ
?has_intvalue@FilterDataObj@server@mobile@@QEBA_NXZ
?has_ip@ClientInfo@server@mobile@@QEBA_NXZ
?has_ip@MessageIp@server@mobile@@QEBA_NXZ
?has_is_soul@ClientInfo@server@mobile@@QEBA_NXZ
?has_isp@SessionIsp@server@mobile@@QEBA_NXZ
?has_key@FilterDataObj@server@mobile@@QEBA_NXZ
?has_key@GlobalData@server@mobile@@QEBA_NXZ
?has_kwargs@RedisExecRequest@server@mobile@@QEBA_NXZ
?has_kwargs@RunProcedureRequest@server@mobile@@QEBA_NXZ
?has_limit@FindDocRequest@server@mobile@@QEBA_NXZ
?has_load@GameLoad@server@mobile@@QEBA_NXZ
?has_localid@RealEntityCreateInfo@server@mobile@@QEBA_NXZ
?has_mailbox@GlobalEntityRegMsg@server@mobile@@QEBA_NXZ
?has_md5_idx@RegistMd5IndexMsg@server@mobile@@QEBA_NXZ
?has_message@GlobalMessage@server@mobile@@QEBA_NXZ
?has_method@CallDBRequest@server@mobile@@QEBA_NXZ
?has_method@CustomServiceMsg@server@mobile@@QEBA_NXZ
?has_method@GateMessage@server@mobile@@QEBA_NXZ
?has_method@ServerMethod@server@mobile@@QEBA_NXZ
?has_multi@UpdateDocRequest@server@mobile@@QEBA_NXZ
?has_new_@FindAndModifyDocRequest@server@mobile@@QEBA_NXZ
?has_op@CtrlType@server@mobile@@QEBA_NXZ
?has_operations@CreateCollectionRequest@server@mobile@@QEBA_NXZ
?has_override@GlobalEntityRegMsg@server@mobile@@QEBA_NXZ
?has_parameters@CustomServiceMsg@server@mobile@@QEBA_NXZ
?has_parameters@GateMessage@server@mobile@@QEBA_NXZ
?has_params@ServerMethod@server@mobile@@QEBA_NXZ
?has_port@ClientInfo@server@mobile@@QEBA_NXZ
?has_pre_transfer_entityid@RealEntityCreateInfo@server@mobile@@QEBA_NXZ
?has_proc@RunProcedureRequest@server@mobile@@QEBA_NXZ
?has_query@CountDocRequest@server@mobile@@QEBA_NXZ
?has_query@DeleteDocRequest@server@mobile@@QEBA_NXZ
?has_query@FindAndModifyDocRequest@server@mobile@@QEBA_NXZ
?has_query@FindDocRequest@server@mobile@@QEBA_NXZ
?has_query@OperIndexRequest@server@mobile@@QEBA_NXZ
?has_query@RedisExecRequest@server@mobile@@QEBA_NXZ
?has_query@RedisMultiExecRequest@server@mobile@@QEBA_NXZ
?has_query@RedisPiplineExecRequest@server@mobile@@QEBA_NXZ
?has_query@UpdateDocRequest@server@mobile@@QEBA_NXZ
?has_random_padding_header@SessionKey@server@mobile@@QEBA_NXZ
?has_random_padding_tail@SessionKey@server@mobile@@QEBA_NXZ
?has_range_num@LocalIdMessage@server@mobile@@QEBA_NXZ
?has_read_pref@FindDocRequest@server@mobile@@QEBA_NXZ
?has_real_class_type@RealEntityCreateInfo@server@mobile@@QEBA_NXZ
?has_real_entityid@RealEntityCreateInfo@server@mobile@@QEBA_NXZ
?has_remove@FindAndModifyDocRequest@server@mobile@@QEBA_NXZ
?has_reply_docs@RedisExecResponse@server@mobile@@QEBA_NXZ
?has_reply_docs@RedisMultiExecResponse@server@mobile@@QEBA_NXZ
?has_reply_docs@RedisPiplineExecResponse@server@mobile@@QEBA_NXZ
?has_return_status@Gate2GameReturnVal@server@mobile@@QEBA_NXZ
?has_return_status@GateReturnVal@server@mobile@@QEBA_NXZ
?has_return_status@GmReturnVal@server@mobile@@QEBA_NXZ
?has_return_val@Gate2GameReturnVal@server@mobile@@QEBA_NXZ
?has_return_val@GmReturnVal@server@mobile@@QEBA_NXZ
?has_routes@CustomServiceMsg@server@mobile@@QEBA_NXZ
?has_routes@FilterUserDatas@server@mobile@@QEBA_NXZ
?has_routes@RegistMd5IndexMsg@server@mobile@@QEBA_NXZ
?has_script_content@Script@server@mobile@@QEBA_NXZ
?has_seed@SessionKey@server@mobile@@QEBA_NXZ
?has_seed@SessionSeed@server@mobile@@QEBA_NXZ
?has_seq_key@DeleteDocRequest@server@mobile@@QEBA_NXZ
?has_seq_key@FindAndModifyDocRequest@server@mobile@@QEBA_NXZ
?has_seq_key@FindDocRequest@server@mobile@@QEBA_NXZ
?has_seq_key@InsertDocRequest@server@mobile@@QEBA_NXZ
?has_seq_key@UpdateDocRequest@server@mobile@@QEBA_NXZ
?has_seqflag@DeleteDocRequest@server@mobile@@QEBA_NXZ
?has_seqflag@FindAndModifyDocRequest@server@mobile@@QEBA_NXZ
?has_seqflag@FindDocRequest@server@mobile@@QEBA_NXZ
?has_seqflag@InsertDocRequest@server@mobile@@QEBA_NXZ
?has_seqflag@UpdateDocRequest@server@mobile@@QEBA_NXZ
?has_server@ClientBindMsg@server@mobile@@QEBA_NXZ
?has_server_type@ServerMethod@server@mobile@@QEBA_NXZ
?has_service_info@CustomServiceMsg@server@mobile@@QEBA_NXZ
?has_service_name@CustomServiceInfo@server@mobile@@QEBA_NXZ
?has_session_key@SessionKey@server@mobile@@QEBA_NXZ
?has_sessionid@ClientInfo@server@mobile@@QEBA_NXZ
?has_skip@FindDocRequest@server@mobile@@QEBA_NXZ
?has_sort@FindAndModifyDocRequest@server@mobile@@QEBA_NXZ
?has_sort@FindDocRequest@server@mobile@@QEBA_NXZ
?has_soul_mailbox@SoulBindMsg@server@mobile@@QEBA_NXZ
?has_src_srv@RealEntityCreateInfo@server@mobile@@QEBA_NXZ
?has_srcmb@ForwardMessageHeader@server@mobile@@QEBA_NXZ
?has_status@CountDocReply@server@mobile@@QEBA_NXZ
?has_status@CreateCollectionReply@server@mobile@@QEBA_NXZ
?has_status@DbStatusMessage@server@mobile@@QEBA_NXZ
?has_status@DeleteDocReply@server@mobile@@QEBA_NXZ
?has_status@FindAndModifyDocReply@server@mobile@@QEBA_NXZ
?has_status@FindDocReply@server@mobile@@QEBA_NXZ
?has_status@InsertDocReply@server@mobile@@QEBA_NXZ
?has_status@OperIndexReply@server@mobile@@QEBA_NXZ
?has_status@RedisExecResponse@server@mobile@@QEBA_NXZ
?has_status@RedisMultiExecResponse@server@mobile@@QEBA_NXZ
?has_status@RedisPiplineExecResponse@server@mobile@@QEBA_NXZ
?has_status@RedisStatusMessage@server@mobile@@QEBA_NXZ
?has_status@RunProcedureReply@server@mobile@@QEBA_NXZ
?has_status@UpdateDocReply@server@mobile@@QEBA_NXZ
?has_strvalue@FilterDataObj@server@mobile@@QEBA_NXZ
?has_support_dc@SoulBindMsg@server@mobile@@QEBA_NXZ
?has_transfer_entity@EntityInfoHeader@server@mobile@@QEBA_NXZ
?has_type@Gate2GameReturnVal@server@mobile@@QEBA_NXZ
?has_type@GmReturnVal@server@mobile@@QEBA_NXZ
?has_type@OperIndexRequest@server@mobile@@QEBA_NXZ
?has_update@FindAndModifyDocRequest@server@mobile@@QEBA_NXZ
?has_upsert@FindAndModifyDocRequest@server@mobile@@QEBA_NXZ
?has_upset@UpdateDocRequest@server@mobile@@QEBA_NXZ
?has_value@GlobalData@server@mobile@@QEBA_NXZ
?hint@FindDocRequest@server@mobile@@QEBAAEBV?$basic_string@DU?$char_traits@D@std@@V?$allocator@D@2@@std@@XZ
?id@CustomServiceInfo@server@mobile@@QEBAAEBV?$basic_string@DU?$char_traits@D@std@@V?$allocator@D@2@@std@@XZ
?independent@SoulBindMsg@server@mobile@@QEBA_NXZ
?ins@?1??instance@service_manager@async@@SAAEAV23@XZ@4V23@A
?insert_id@InsertDocReply@server@mobile@@QEBAAEBV?$basic_string@DU?$char_traits@D@std@@V?$allocator@D@2@@std@@XZ
?instance@service_manager@async@@SAAEAV12@XZ
?intvalue@FilterDataObj@server@mobile@@QEBAHXZ
?ip@ClientInfo@server@mobile@@QEBAAEBV?$basic_string@DU?$char_traits@D@std@@V?$allocator@D@2@@std@@XZ
?ip@MessageIp@server@mobile@@QEBAAEBV?$basic_string@DU?$char_traits@D@std@@V?$allocator@D@2@@std@@XZ
?ip_reply@IGateClient@server@mobile@@UEAAXPEAVRpcController@protobuf@google@@PEBVMessageIp@23@PEAVVoid@23@PEAVClosure@56@@Z
?ip_reply@IGateClient_Stub@server@mobile@@UEAAXPEAVRpcController@protobuf@google@@PEBVMessageIp@23@PEAVVoid@23@PEAVClosure@56@@Z
?is_async_timer@@YA_NXZ
?is_soul@ClientInfo@server@mobile@@QEBA_NXZ
?isp@SessionIsp@server@mobile@@QEBA_JXZ
?isp_reply@IGateClient@server@mobile@@UEAAXPEAVRpcController@protobuf@google@@PEBVSessionIsp@23@PEAVVoid@23@PEAVClosure@56@@Z
?isp_reply@IGateClient_Stub@server@mobile@@UEAAXPEAVRpcController@protobuf@google@@PEBVSessionIsp@23@PEAVVoid@23@PEAVClosure@56@@Z
?kActiveStreamStrFieldNumber@ActiveCompress@server@mobile@@2HB
?kArgsFieldNumber@CallDBRequest@server@mobile@@2HB
?kArgsFieldNumber@CallDBResponse@server@mobile@@2HB
?kArgsFieldNumber@RedisExecRequest@server@mobile@@2HB
?kArgsFieldNumber@RunProcedureRequest@server@mobile@@2HB
?kAvatarMailboxFieldNumber@SoulBindMsg@server@mobile@@2HB
?kBeginFieldNumber@LocalIdMessage@server@mobile@@2HB
?kCallbackIdFieldNumber@CallDBRequest@server@mobile@@2HB
?kCallbackIdFieldNumber@CallDBResponse@server@mobile@@2HB
?kCallbackIdFieldNumber@CallbackId@server@mobile@@2HB
?kCallbackIdFieldNumber@CountDocReply@server@mobile@@2HB
?kCallbackIdFieldNumber@CountDocRequest@server@mobile@@2HB
?kCallbackIdFieldNumber@CreateCollectionReply@server@mobile@@2HB
?kCallbackIdFieldNumber@CreateCollectionRequest@server@mobile@@2HB
?kCallbackIdFieldNumber@DeleteDocReply@server@mobile@@2HB
?kCallbackIdFieldNumber@DeleteDocRequest@server@mobile@@2HB
?kCallbackIdFieldNumber@EntityInfoHeader@server@mobile@@2HB
?kCallbackIdFieldNumber@FindAndModifyDocReply@server@mobile@@2HB
?kCallbackIdFieldNumber@FindAndModifyDocRequest@server@mobile@@2HB
?kCallbackIdFieldNumber@FindDocReply@server@mobile@@2HB
?kCallbackIdFieldNumber@FindDocRequest@server@mobile@@2HB
?kCallbackIdFieldNumber@ForwardMessageHeader@server@mobile@@2HB
?kCallbackIdFieldNumber@Gate2GameReturnVal@server@mobile@@2HB
?kCallbackIdFieldNumber@GlobalEntityRegMsg@server@mobile@@2HB
?kCallbackIdFieldNumber@GmReturnVal@server@mobile@@2HB
?kCallbackIdFieldNumber@InsertDocReply@server@mobile@@2HB
?kCallbackIdFieldNumber@InsertDocRequest@server@mobile@@2HB
?kCallbackIdFieldNumber@OperIndexReply@server@mobile@@2HB
?kCallbackIdFieldNumber@OperIndexRequest@server@mobile@@2HB
?kCallbackIdFieldNumber@RedisExecRequest@server@mobile@@2HB
?kCallbackIdFieldNumber@RedisExecResponse@server@mobile@@2HB
?kCallbackIdFieldNumber@RedisMultiExecRequest@server@mobile@@2HB
?kCallbackIdFieldNumber@RedisMultiExecResponse@server@mobile@@2HB
?kCallbackIdFieldNumber@RedisPiplineExecRequest@server@mobile@@2HB
?kCallbackIdFieldNumber@RedisPiplineExecResponse@server@mobile@@2HB
?kCallbackIdFieldNumber@RunProcedureReply@server@mobile@@2HB
?kCallbackIdFieldNumber@RunProcedureRequest@server@mobile@@2HB
?kCallbackIdFieldNumber@SoulBindMsg@server@mobile@@2HB
?kCallbackIdFieldNumber@SoulUnbindMsg@server@mobile@@2HB
?kCallbackIdFieldNumber@UpdateDocReply@server@mobile@@2HB
?kCallbackIdFieldNumber@UpdateDocRequest@server@mobile@@2HB
?kClientidFieldNumber@ClientInfo@server@mobile@@2HB
?kClientidFieldNumber@ForwardMessageHeader@server@mobile@@2HB
?kClientinfoFieldNumber@ClientBindMsg@server@mobile@@2HB
?kClientinfoFieldNumber@EntityInfoHeader@server@mobile@@2HB
?kClientinfoFieldNumber@GateMailbox@server@mobile@@2HB
?kClientinfoFieldNumber@GateReturnVal@server@mobile@@2HB
?kClientinfoFieldNumber@SoulBindMsg@server@mobile@@2HB
?kClientinfoFieldNumber@SoulUnbindMsg@server@mobile@@2HB
?kClientinfocacheFieldNumber@RealEntityCreateInfo@server@mobile@@2HB
?kCmccFieldNumber@SoulBindMsg@server@mobile@@2HB
?kCollectionFieldNumber@CountDocRequest@server@mobile@@2HB
?kCollectionFieldNumber@CreateCollectionRequest@server@mobile@@2HB
?kCollectionFieldNumber@DeleteDocRequest@server@mobile@@2HB
?kCollectionFieldNumber@FindAndModifyDocRequest@server@mobile@@2HB
?kCollectionFieldNumber@FindDocRequest@server@mobile@@2HB
?kCollectionFieldNumber@InsertDocRequest@server@mobile@@2HB
?kCollectionFieldNumber@OperIndexRequest@server@mobile@@2HB
?kCollectionFieldNumber@UpdateDocRequest@server@mobile@@2HB
?kContentFieldNumber@RealEntityCreateInfo@server@mobile@@2HB
?kCountFieldNumber@CountDocReply@server@mobile@@2HB
?kCreateAnywhereFieldNumber@EntityInfoHeader@server@mobile@@2HB
?kCreateFromDbFieldNumber@EntityInfoHeader@server@mobile@@2HB
?kCtccFieldNumber@SoulBindMsg@server@mobile@@2HB
?kCuccFieldNumber@SoulBindMsg@server@mobile@@2HB
?kDbFieldNumber@CountDocRequest@server@mobile@@2HB
?kDbFieldNumber@CreateCollectionRequest@server@mobile@@2HB
?kDbFieldNumber@DeleteDocRequest@server@mobile@@2HB
?kDbFieldNumber@FindAndModifyDocRequest@server@mobile@@2HB
?kDbFieldNumber@FindDocRequest@server@mobile@@2HB
?kDbFieldNumber@InsertDocRequest@server@mobile@@2HB
?kDbFieldNumber@OperIndexRequest@server@mobile@@2HB
?kDbFieldNumber@RedisExecRequest@server@mobile@@2HB
?kDbFieldNumber@RedisMultiExecRequest@server@mobile@@2HB
?kDbFieldNumber@RedisPiplineExecRequest@server@mobile@@2HB
?kDbFieldNumber@RunProcedureRequest@server@mobile@@2HB
?kDbFieldNumber@UpdateDocRequest@server@mobile@@2HB
?kDbNameFieldNumber@DbServerInfo@server@mobile@@2HB
?kDescFieldNumber@OperIndexRequest@server@mobile@@2HB
?kDocFieldNumber@FindAndModifyDocReply@server@mobile@@2HB
?kDocFieldNumber@InsertDocRequest@server@mobile@@2HB
?kDocFieldNumber@RunProcedureReply@server@mobile@@2HB
?kDocFieldNumber@UpdateDocRequest@server@mobile@@2HB
?kDocsFieldNumber@FindDocReply@server@mobile@@2HB
?kDstServerFieldNumber@EntityInfoHeader@server@mobile@@2HB
?kDstSrvFieldNumber@RealEntityCreateInfo@server@mobile@@2HB
?kDstmbFieldNumber@ForwardMessageHeader@server@mobile@@2HB
?kEncryptstrFieldNumber@EncryptString@server@mobile@@2HB
?kEntityUniqNameFieldNumber@GlobalEntityRegMsg@server@mobile@@2HB
?kEntityidFieldNumber@ClientBindMsg@server@mobile@@2HB
?kEntityidFieldNumber@GateMailbox@server@mobile@@2HB
?kErrorMsgFieldNumber@Gate2GameReturnVal@server@mobile@@2HB
?kErrorMsgFieldNumber@GmReturnVal@server@mobile@@2HB
?kFieldsFieldNumber@FindAndModifyDocRequest@server@mobile@@2HB
?kFieldsFieldNumber@FindDocRequest@server@mobile@@2HB
?kGameserversFieldNumber@GameServerInfos@server@mobile@@2HB
?kGateidFieldNumber@ClientInfo@server@mobile@@2HB
?kGateidFieldNumber@GateInfo@server@mobile@@2HB
?kHintFieldNumber@FindDocRequest@server@mobile@@2HB
?kIdFieldNumber@CustomServiceInfo@server@mobile@@2HB
?kIndependentFieldNumber@SoulBindMsg@server@mobile@@2HB
?kInsertIdFieldNumber@InsertDocReply@server@mobile@@2HB
?kIntvalueFieldNumber@FilterDataObj@server@mobile@@2HB
?kIpFieldNumber@ClientInfo@server@mobile@@2HB
?kIpFieldNumber@MessageIp@server@mobile@@2HB
?kIsSoulFieldNumber@ClientInfo@server@mobile@@2HB
?kIspFieldNumber@SessionIsp@server@mobile@@2HB
?kKeyFieldNumber@FilterDataObj@server@mobile@@2HB
?kKeyFieldNumber@GlobalData@server@mobile@@2HB
?kKwargsFieldNumber@RedisExecRequest@server@mobile@@2HB
?kKwargsFieldNumber@RunProcedureRequest@server@mobile@@2HB
?kLimitFieldNumber@FindDocRequest@server@mobile@@2HB
?kLoadFieldNumber@GameLoad@server@mobile@@2HB
?kLocalidFieldNumber@RealEntityCreateInfo@server@mobile@@2HB
?kMailboxFieldNumber@GlobalEntityRegMsg@server@mobile@@2HB
?kMd5IdxFieldNumber@RegistMd5IndexMsg@server@mobile@@2HB
?kMessageFieldNumber@GlobalMessage@server@mobile@@2HB
?kMethodFieldNumber@CallDBRequest@server@mobile@@2HB
?kMethodFieldNumber@CustomServiceMsg@server@mobile@@2HB
?kMethodFieldNumber@GateMessage@server@mobile@@2HB
?kMethodFieldNumber@ServerMethod@server@mobile@@2HB
?kMultiFieldNumber@UpdateDocRequest@server@mobile@@2HB
?kNewFieldNumber@FindAndModifyDocRequest@server@mobile@@2HB
?kOpFieldNumber@CtrlType@server@mobile@@2HB
?kOperationsFieldNumber@CreateCollectionRequest@server@mobile@@2HB
?kOverrideFieldNumber@GlobalEntityRegMsg@server@mobile@@2HB
?kParametersFieldNumber@CustomServiceMsg@server@mobile@@2HB
?kParametersFieldNumber@GateMessage@server@mobile@@2HB
?kParamsFieldNumber@ServerMethod@server@mobile@@2HB
?kPortFieldNumber@ClientInfo@server@mobile@@2HB
?kPreTransferEntityidFieldNumber@RealEntityCreateInfo@server@mobile@@2HB
?kProcFieldNumber@RunProcedureRequest@server@mobile@@2HB
?kQueryFieldNumber@CountDocRequest@server@mobile@@2HB
?kQueryFieldNumber@DeleteDocRequest@server@mobile@@2HB
?kQueryFieldNumber@FindAndModifyDocRequest@server@mobile@@2HB
?kQueryFieldNumber@FindDocRequest@server@mobile@@2HB
?kQueryFieldNumber@OperIndexRequest@server@mobile@@2HB
?kQueryFieldNumber@RedisExecRequest@server@mobile@@2HB
?kQueryFieldNumber@RedisMultiExecRequest@server@mobile@@2HB
?kQueryFieldNumber@RedisPiplineExecRequest@server@mobile@@2HB
?kQueryFieldNumber@UpdateDocRequest@server@mobile@@2HB
?kRandomPaddingHeaderFieldNumber@SessionKey@server@mobile@@2HB
?kRandomPaddingTailFieldNumber@SessionKey@server@mobile@@2HB
?kRangeNumFieldNumber@LocalIdMessage@server@mobile@@2HB
?kReadPrefFieldNumber@FindDocRequest@server@mobile@@2HB
?kRealClassTypeFieldNumber@RealEntityCreateInfo@server@mobile@@2HB
?kRealEntityidFieldNumber@RealEntityCreateInfo@server@mobile@@2HB
?kRemoveFieldNumber@FindAndModifyDocRequest@server@mobile@@2HB
?kReplyDocsFieldNumber@RedisExecResponse@server@mobile@@2HB
?kReplyDocsFieldNumber@RedisMultiExecResponse@server@mobile@@2HB
?kReplyDocsFieldNumber@RedisPiplineExecResponse@server@mobile@@2HB
?kReturnStatusFieldNumber@Gate2GameReturnVal@server@mobile@@2HB
?kReturnStatusFieldNumber@GateReturnVal@server@mobile@@2HB
?kReturnStatusFieldNumber@GmReturnVal@server@mobile@@2HB
?kReturnValFieldNumber@Gate2GameReturnVal@server@mobile@@2HB
?kReturnValFieldNumber@GmReturnVal@server@mobile@@2HB
?kRoutesFieldNumber@CustomServiceMsg@server@mobile@@2HB
?kRoutesFieldNumber@FilterUserDatas@server@mobile@@2HB
?kRoutesFieldNumber@RegistMd5IndexMsg@server@mobile@@2HB
?kScriptContentFieldNumber@Script@server@mobile@@2HB
?kSeedFieldNumber@SessionKey@server@mobile@@2HB
?kSeedFieldNumber@SessionSeed@server@mobile@@2HB
?kSeqKeyFieldNumber@DeleteDocRequest@server@mobile@@2HB
?kSeqKeyFieldNumber@FindAndModifyDocRequest@server@mobile@@2HB
?kSeqKeyFieldNumber@FindDocRequest@server@mobile@@2HB
?kSeqKeyFieldNumber@InsertDocRequest@server@mobile@@2HB
?kSeqKeyFieldNumber@UpdateDocRequest@server@mobile@@2HB
?kSeqflagFieldNumber@DeleteDocRequest@server@mobile@@2HB
?kSeqflagFieldNumber@FindAndModifyDocRequest@server@mobile@@2HB
?kSeqflagFieldNumber@FindDocRequest@server@mobile@@2HB
?kSeqflagFieldNumber@InsertDocRequest@server@mobile@@2HB
?kSeqflagFieldNumber@UpdateDocRequest@server@mobile@@2HB
?kServerFieldNumber@ClientBindMsg@server@mobile@@2HB
?kServerTypeFieldNumber@ServerMethod@server@mobile@@2HB
?kServiceInfoFieldNumber@CustomServiceMsg@server@mobile@@2HB
?kServiceNameFieldNumber@CustomServiceInfo@server@mobile@@2HB
?kServicesFieldNumber@ServiceInfos@server@mobile@@2HB
?kSessionKeyFieldNumber@SessionKey@server@mobile@@2HB
?kSessionidFieldNumber@ClientInfo@server@mobile@@2HB
?kSkipFieldNumber@FindDocRequest@server@mobile@@2HB
?kSortFieldNumber@FindAndModifyDocRequest@server@mobile@@2HB
?kSortFieldNumber@FindDocRequest@server@mobile@@2HB
?kSoulMailboxFieldNumber@SoulBindMsg@server@mobile@@2HB
?kSrcSrvFieldNumber@RealEntityCreateInfo@server@mobile@@2HB
?kSrcmbFieldNumber@ForwardMessageHeader@server@mobile@@2HB
?kStatusFieldNumber@CountDocReply@server@mobile@@2HB
?kStatusFieldNumber@CreateCollectionReply@server@mobile@@2HB
?kStatusFieldNumber@DbStatusMessage@server@mobile@@2HB
?kStatusFieldNumber@DeleteDocReply@server@mobile@@2HB
?kStatusFieldNumber@FindAndModifyDocReply@server@mobile@@2HB
?kStatusFieldNumber@FindDocReply@server@mobile@@2HB
?kStatusFieldNumber@InsertDocReply@server@mobile@@2HB
?kStatusFieldNumber@OperIndexReply@server@mobile@@2HB
?kStatusFieldNumber@RedisExecResponse@server@mobile@@2HB
?kStatusFieldNumber@RedisMultiExecResponse@server@mobile@@2HB
?kStatusFieldNumber@RedisPiplineExecResponse@server@mobile@@2HB
?kStatusFieldNumber@RedisStatusMessage@server@mobile@@2HB
?kStatusFieldNumber@RunProcedureReply@server@mobile@@2HB
?kStatusFieldNumber@UpdateDocReply@server@mobile@@2HB
?kStrvalueFieldNumber@FilterDataObj@server@mobile@@2HB
?kSupportDcFieldNumber@SoulBindMsg@server@mobile@@2HB
?kTransferEntityFieldNumber@EntityInfoHeader@server@mobile@@2HB
?kTypeFieldNumber@Gate2GameReturnVal@server@mobile@@2HB
?kTypeFieldNumber@GmReturnVal@server@mobile@@2HB
?kTypeFieldNumber@OperIndexRequest@server@mobile@@2HB
?kUpdateFieldNumber@FindAndModifyDocRequest@server@mobile@@2HB
?kUpsertFieldNumber@FindAndModifyDocRequest@server@mobile@@2HB
?kUpsetFieldNumber@UpdateDocRequest@server@mobile@@2HB
?kUserdatasFieldNumber@FilterUserDatas@server@mobile@@2HB
?kValueFieldNumber@GlobalData@server@mobile@@2HB
?keep_alive@IGameManagerClient@server@mobile@@UEAAXPEAVRpcController@protobuf@google@@PEBVVoid@23@PEAV723@PEAVClosure@56@@Z
?keep_alive@IGameManagerClient_Stub@server@mobile@@UEAAXPEAVRpcController@protobuf@google@@PEBVVoid@23@PEAV723@PEAVClosure@56@@Z
?keep_alive@IGameService@server@mobile@@UEAAXPEAVRpcController@protobuf@google@@PEBVVoid@23@PEAV723@PEAVClosure@56@@Z
?keep_alive@IGameService_Stub@server@mobile@@UEAAXPEAVRpcController@protobuf@google@@PEBVVoid@23@PEAV723@PEAVClosure@56@@Z
?keep_alive_ack@IGameClient@server@mobile@@UEAAXPEAVRpcController@protobuf@google@@PEBVVoid@23@PEAV723@PEAVClosure@56@@Z
?keep_alive_ack@IGameClient_Stub@server@mobile@@UEAAXPEAVRpcController@protobuf@google@@PEBVVoid@23@PEAV723@PEAVClosure@56@@Z
?keep_alive_ack@IGameManager@server@mobile@@UEAAXPEAVRpcController@protobuf@google@@PEBVVoid@23@PEAV723@PEAVClosure@56@@Z
?keep_alive_ack@IGameManager_Stub@server@mobile@@UEAAXPEAVRpcController@protobuf@google@@PEBVVoid@23@PEAV723@PEAVClosure@56@@Z
?key@FilterDataObj@server@mobile@@QEBAAEBV?$basic_string@DU?$char_traits@D@std@@V?$allocator@D@2@@std@@XZ
?key@GlobalData@server@mobile@@QEBAAEBV?$basic_string@DU?$char_traits@D@std@@V?$allocator@D@2@@std@@XZ
?kwargs@RedisExecRequest@server@mobile@@QEBAAEBV?$basic_string@DU?$char_traits@D@std@@V?$allocator@D@2@@std@@XZ
?kwargs@RunProcedureRequest@server@mobile@@QEBAAEBV?$basic_string@DU?$char_traits@D@std@@V?$allocator@D@2@@std@@XZ
?limit@FindDocRequest@server@mobile@@QEBAHXZ
?load@GameLoad@server@mobile@@QEBANXZ
?localid@RealEntityCreateInfo@server@mobile@@QEBAHXZ
?localid_request@IGameManager@server@mobile@@UEAAXPEAVRpcController@protobuf@google@@PEBVVoid@23@PEAV723@PEAVClosure@56@@Z
?localid_request@IGameManager_Stub@server@mobile@@UEAAXPEAVRpcController@protobuf@google@@PEBVVoid@23@PEAV723@PEAVClosure@56@@Z
?localid_response@IGameManagerClient@server@mobile@@UEAAXPEAVRpcController@protobuf@google@@PEBVLocalIdMessage@23@PEAVVoid@23@PEAVClosure@56@@Z
?localid_response@IGameManagerClient_Stub@server@mobile@@UEAAXPEAVRpcController@protobuf@google@@PEBVLocalIdMessage@23@PEAVVoid@23@PEAVClosure@56@@Z
?m_pStreamMgr@IAkStreamMgr@AK@@1PEAV12@EA
?mailbox@GlobalEntityRegMsg@server@mobile@@QEBAAEBVEntityMailbox@23@XZ
?md5_idx@RegistMd5IndexMsg@server@mobile@@QEBAAEBVMd5OrIndex@23@XZ
?message@GlobalMessage@server@mobile@@QEBAAEBV?$basic_string@DU?$char_traits@D@std@@V?$allocator@D@2@@std@@XZ
?method@CallDBRequest@server@mobile@@QEBAAEBV?$basic_string@DU?$char_traits@D@std@@V?$allocator@D@2@@std@@XZ
?method@CustomServiceMsg@server@mobile@@QEBAAEBV?$basic_string@DU?$char_traits@D@std@@V?$allocator@D@2@@std@@XZ
?method@GateMessage@server@mobile@@QEBAAEBVMd5OrIndex@23@XZ
?method@ServerMethod@server@mobile@@QEBAAEBV?$basic_string@DU?$char_traits@D@std@@V?$allocator@D@2@@std@@XZ
?move_to_server@IGameService@server@mobile@@UEAAXPEAVRpcController@protobuf@google@@PEBVMoveMessage@23@PEAVVoid@23@PEAVClosure@56@@Z
?move_to_server@IGameService_Stub@server@mobile@@UEAAXPEAVRpcController@protobuf@google@@PEBVMoveMessage@23@PEAVVoid@23@PEAVClosure@56@@Z
?move_to_server@IGateService@server@mobile@@UEAAXPEAVRpcController@protobuf@google@@PEBVMoveMessage@23@PEAVVoid@23@PEAVClosure@56@@Z
?move_to_server@IGateService_Stub@server@mobile@@UEAAXPEAVRpcController@protobuf@google@@PEBVMoveMessage@23@PEAVVoid@23@PEAVClosure@56@@Z
?multi@UpdateDocRequest@server@mobile@@QEBA_NXZ
?mutable_active_stream_str@ActiveCompress@server@mobile@@QEAAPEAV?$basic_string@DU?$char_traits@D@std@@V?$allocator@D@2@@std@@XZ
?mutable_args@CallDBRequest@server@mobile@@QEAAPEAV?$basic_string@DU?$char_traits@D@std@@V?$allocator@D@2@@std@@XZ
?mutable_args@CallDBResponse@server@mobile@@QEAAPEAV?$basic_string@DU?$char_traits@D@std@@V?$allocator@D@2@@std@@XZ
?mutable_args@RedisExecRequest@server@mobile@@QEAAPEAV?$basic_string@DU?$char_traits@D@std@@V?$allocator@D@2@@std@@XZ
?mutable_args@RunProcedureRequest@server@mobile@@QEAAPEAV?$basic_string@DU?$char_traits@D@std@@V?$allocator@D@2@@std@@XZ
?mutable_avatar_mailbox@SoulBindMsg@server@mobile@@QEAAPEAVEntityMailbox@23@XZ
?mutable_clientid@ClientInfo@server@mobile@@QEAAPEAV?$basic_string@DU?$char_traits@D@std@@V?$allocator@D@2@@std@@XZ
?mutable_clientid@ForwardMessageHeader@server@mobile@@QEAAPEAV?$basic_string@DU?$char_traits@D@std@@V?$allocator@D@2@@std@@XZ
?mutable_clientinfo@ClientBindMsg@server@mobile@@QEAAPEAVClientInfo@23@XZ
?mutable_clientinfo@EntityInfoHeader@server@mobile@@QEAAPEAVClientInfo@23@XZ
?mutable_clientinfo@GateMailbox@server@mobile@@QEAAPEAVClientInfo@23@XZ
?mutable_clientinfo@GateReturnVal@server@mobile@@QEAAPEAVClientInfo@23@XZ
?mutable_clientinfo@SoulBindMsg@server@mobile@@QEAAPEAVClientInfo@23@XZ
?mutable_clientinfo@SoulUnbindMsg@server@mobile@@QEAAPEAVClientInfo@23@XZ
?mutable_clientinfocache@RealEntityCreateInfo@server@mobile@@QEAAPEAV?$basic_string@DU?$char_traits@D@std@@V?$allocator@D@2@@std@@XZ
?mutable_cmcc@SoulBindMsg@server@mobile@@QEAAPEAV?$basic_string@DU?$char_traits@D@std@@V?$allocator@D@2@@std@@XZ
?mutable_collection@CountDocRequest@server@mobile@@QEAAPEAV?$basic_string@DU?$char_traits@D@std@@V?$allocator@D@2@@std@@XZ
?mutable_collection@CreateCollectionRequest@server@mobile@@QEAAPEAV?$basic_string@DU?$char_traits@D@std@@V?$allocator@D@2@@std@@XZ
?mutable_collection@DeleteDocRequest@server@mobile@@QEAAPEAV?$basic_string@DU?$char_traits@D@std@@V?$allocator@D@2@@std@@XZ
?mutable_collection@FindAndModifyDocRequest@server@mobile@@QEAAPEAV?$basic_string@DU?$char_traits@D@std@@V?$allocator@D@2@@std@@XZ
?mutable_collection@FindDocRequest@server@mobile@@QEAAPEAV?$basic_string@DU?$char_traits@D@std@@V?$allocator@D@2@@std@@XZ
?mutable_collection@InsertDocRequest@server@mobile@@QEAAPEAV?$basic_string@DU?$char_traits@D@std@@V?$allocator@D@2@@std@@XZ
?mutable_collection@OperIndexRequest@server@mobile@@QEAAPEAV?$basic_string@DU?$char_traits@D@std@@V?$allocator@D@2@@std@@XZ
?mutable_collection@UpdateDocRequest@server@mobile@@QEAAPEAV?$basic_string@DU?$char_traits@D@std@@V?$allocator@D@2@@std@@XZ
?mutable_content@RealEntityCreateInfo@server@mobile@@QEAAPEAV?$basic_string@DU?$char_traits@D@std@@V?$allocator@D@2@@std@@XZ
?mutable_ctcc@SoulBindMsg@server@mobile@@QEAAPEAV?$basic_string@DU?$char_traits@D@std@@V?$allocator@D@2@@std@@XZ
?mutable_cucc@SoulBindMsg@server@mobile@@QEAAPEAV?$basic_string@DU?$char_traits@D@std@@V?$allocator@D@2@@std@@XZ
?mutable_db@CountDocRequest@server@mobile@@QEAAPEAV?$basic_string@DU?$char_traits@D@std@@V?$allocator@D@2@@std@@XZ
?mutable_db@CreateCollectionRequest@server@mobile@@QEAAPEAV?$basic_string@DU?$char_traits@D@std@@V?$allocator@D@2@@std@@XZ
?mutable_db@DeleteDocRequest@server@mobile@@QEAAPEAV?$basic_string@DU?$char_traits@D@std@@V?$allocator@D@2@@std@@XZ
?mutable_db@FindAndModifyDocRequest@server@mobile@@QEAAPEAV?$basic_string@DU?$char_traits@D@std@@V?$allocator@D@2@@std@@XZ
?mutable_db@FindDocRequest@server@mobile@@QEAAPEAV?$basic_string@DU?$char_traits@D@std@@V?$allocator@D@2@@std@@XZ
?mutable_db@InsertDocRequest@server@mobile@@QEAAPEAV?$basic_string@DU?$char_traits@D@std@@V?$allocator@D@2@@std@@XZ
?mutable_db@OperIndexRequest@server@mobile@@QEAAPEAV?$basic_string@DU?$char_traits@D@std@@V?$allocator@D@2@@std@@XZ
?mutable_db@RunProcedureRequest@server@mobile@@QEAAPEAV?$basic_string@DU?$char_traits@D@std@@V?$allocator@D@2@@std@@XZ
?mutable_db@UpdateDocRequest@server@mobile@@QEAAPEAV?$basic_string@DU?$char_traits@D@std@@V?$allocator@D@2@@std@@XZ
?mutable_db_name@DbServerInfo@server@mobile@@QEAAPEAV?$basic_string@DU?$char_traits@D@std@@V?$allocator@D@2@@std@@XZ
?mutable_desc@OperIndexRequest@server@mobile@@QEAAPEAV?$basic_string@DU?$char_traits@D@std@@V?$allocator@D@2@@std@@XZ
?mutable_doc@FindAndModifyDocReply@server@mobile@@QEAAPEAV?$basic_string@DU?$char_traits@D@std@@V?$allocator@D@2@@std@@XZ
?mutable_doc@InsertDocRequest@server@mobile@@QEAAPEAV?$basic_string@DU?$char_traits@D@std@@V?$allocator@D@2@@std@@XZ
?mutable_doc@RunProcedureReply@server@mobile@@QEAAPEAV?$basic_string@DU?$char_traits@D@std@@V?$allocator@D@2@@std@@XZ
?mutable_doc@UpdateDocRequest@server@mobile@@QEAAPEAV?$basic_string@DU?$char_traits@D@std@@V?$allocator@D@2@@std@@XZ
?mutable_docs@FindDocReply@server@mobile@@QEAAPEAV?$RepeatedPtrField@V?$basic_string@DU?$char_traits@D@std@@V?$allocator@D@2@@std@@@protobuf@google@@XZ
?mutable_docs@FindDocReply@server@mobile@@QEAAPEAV?$basic_string@DU?$char_traits@D@std@@V?$allocator@D@2@@std@@H@Z
?mutable_dst_server@EntityInfoHeader@server@mobile@@QEAAPEAVServerInfo@23@XZ
?mutable_dst_srv@RealEntityCreateInfo@server@mobile@@QEAAPEAVServerInfo@23@XZ
?mutable_dstmb@ForwardMessageHeader@server@mobile@@QEAAPEAVEntityMailbox@23@XZ
?mutable_encryptstr@EncryptString@server@mobile@@QEAAPEAV?$basic_string@DU?$char_traits@D@std@@V?$allocator@D@2@@std@@XZ
?mutable_entity_uniq_name@GlobalEntityRegMsg@server@mobile@@QEAAPEAV?$basic_string@DU?$char_traits@D@std@@V?$allocator@D@2@@std@@XZ
?mutable_entityid@ClientBindMsg@server@mobile@@QEAAPEAV?$basic_string@DU?$char_traits@D@std@@V?$allocator@D@2@@std@@XZ
?mutable_entityid@GateMailbox@server@mobile@@QEAAPEAV?$basic_string@DU?$char_traits@D@std@@V?$allocator@D@2@@std@@XZ
?mutable_error_msg@Gate2GameReturnVal@server@mobile@@QEAAPEAV?$basic_string@DU?$char_traits@D@std@@V?$allocator@D@2@@std@@XZ
?mutable_error_msg@GmReturnVal@server@mobile@@QEAAPEAV?$basic_string@DU?$char_traits@D@std@@V?$allocator@D@2@@std@@XZ
?mutable_fields@FindAndModifyDocRequest@server@mobile@@QEAAPEAV?$basic_string@DU?$char_traits@D@std@@V?$allocator@D@2@@std@@XZ
?mutable_fields@FindDocRequest@server@mobile@@QEAAPEAV?$basic_string@DU?$char_traits@D@std@@V?$allocator@D@2@@std@@XZ
?mutable_gameservers@GameServerInfos@server@mobile@@QEAAPEAV?$RepeatedPtrField@VServerInfo@server@mobile@@@protobuf@google@@XZ
?mutable_gameservers@GameServerInfos@server@mobile@@QEAAPEAVServerInfo@23@H@Z
?mutable_gateid@ClientInfo@server@mobile@@QEAAPEAV?$basic_string@DU?$char_traits@D@std@@V?$allocator@D@2@@std@@XZ
?mutable_gateid@GateInfo@server@mobile@@QEAAPEAV?$basic_string@DU?$char_traits@D@std@@V?$allocator@D@2@@std@@XZ
?mutable_hint@FindDocRequest@server@mobile@@QEAAPEAV?$basic_string@DU?$char_traits@D@std@@V?$allocator@D@2@@std@@XZ
?mutable_id@CustomServiceInfo@server@mobile@@QEAAPEAV?$basic_string@DU?$char_traits@D@std@@V?$allocator@D@2@@std@@XZ
?mutable_insert_id@InsertDocReply@server@mobile@@QEAAPEAV?$basic_string@DU?$char_traits@D@std@@V?$allocator@D@2@@std@@XZ
?mutable_ip@ClientInfo@server@mobile@@QEAAPEAV?$basic_string@DU?$char_traits@D@std@@V?$allocator@D@2@@std@@XZ
?mutable_ip@MessageIp@server@mobile@@QEAAPEAV?$basic_string@DU?$char_traits@D@std@@V?$allocator@D@2@@std@@XZ
?mutable_key@FilterDataObj@server@mobile@@QEAAPEAV?$basic_string@DU?$char_traits@D@std@@V?$allocator@D@2@@std@@XZ
?mutable_key@GlobalData@server@mobile@@QEAAPEAV?$basic_string@DU?$char_traits@D@std@@V?$allocator@D@2@@std@@XZ
?mutable_kwargs@RedisExecRequest@server@mobile@@QEAAPEAV?$basic_string@DU?$char_traits@D@std@@V?$allocator@D@2@@std@@XZ
?mutable_kwargs@RunProcedureRequest@server@mobile@@QEAAPEAV?$basic_string@DU?$char_traits@D@std@@V?$allocator@D@2@@std@@XZ
?mutable_mailbox@GlobalEntityRegMsg@server@mobile@@QEAAPEAVEntityMailbox@23@XZ
?mutable_md5_idx@RegistMd5IndexMsg@server@mobile@@QEAAPEAVMd5OrIndex@23@XZ
?mutable_message@GlobalMessage@server@mobile@@QEAAPEAV?$basic_string@DU?$char_traits@D@std@@V?$allocator@D@2@@std@@XZ
?mutable_method@CallDBRequest@server@mobile@@QEAAPEAV?$basic_string@DU?$char_traits@D@std@@V?$allocator@D@2@@std@@XZ
?mutable_method@CustomServiceMsg@server@mobile@@QEAAPEAV?$basic_string@DU?$char_traits@D@std@@V?$allocator@D@2@@std@@XZ
?mutable_method@GateMessage@server@mobile@@QEAAPEAVMd5OrIndex@23@XZ
?mutable_method@ServerMethod@server@mobile@@QEAAPEAV?$basic_string@DU?$char_traits@D@std@@V?$allocator@D@2@@std@@XZ
?mutable_operations@CreateCollectionRequest@server@mobile@@QEAAPEAV?$basic_string@DU?$char_traits@D@std@@V?$allocator@D@2@@std@@XZ
?mutable_parameters@CustomServiceMsg@server@mobile@@QEAAPEAV?$basic_string@DU?$char_traits@D@std@@V?$allocator@D@2@@std@@XZ
?mutable_parameters@GateMessage@server@mobile@@QEAAPEAV?$basic_string@DU?$char_traits@D@std@@V?$allocator@D@2@@std@@XZ
?mutable_params@ServerMethod@server@mobile@@QEAAPEAV?$basic_string@DU?$char_traits@D@std@@V?$allocator@D@2@@std@@XZ
?mutable_pre_transfer_entityid@RealEntityCreateInfo@server@mobile@@QEAAPEAV?$basic_string@DU?$char_traits@D@std@@V?$allocator@D@2@@std@@XZ
?mutable_proc@RunProcedureRequest@server@mobile@@QEAAPEAV?$basic_string@DU?$char_traits@D@std@@V?$allocator@D@2@@std@@XZ
?mutable_query@CountDocRequest@server@mobile@@QEAAPEAV?$basic_string@DU?$char_traits@D@std@@V?$allocator@D@2@@std@@XZ
?mutable_query@DeleteDocRequest@server@mobile@@QEAAPEAV?$basic_string@DU?$char_traits@D@std@@V?$allocator@D@2@@std@@XZ
?mutable_query@FindAndModifyDocRequest@server@mobile@@QEAAPEAV?$basic_string@DU?$char_traits@D@std@@V?$allocator@D@2@@std@@XZ
?mutable_query@FindDocRequest@server@mobile@@QEAAPEAV?$basic_string@DU?$char_traits@D@std@@V?$allocator@D@2@@std@@XZ
?mutable_query@OperIndexRequest@server@mobile@@QEAAPEAV?$basic_string@DU?$char_traits@D@std@@V?$allocator@D@2@@std@@XZ
?mutable_query@RedisExecRequest@server@mobile@@QEAAPEAV?$basic_string@DU?$char_traits@D@std@@V?$allocator@D@2@@std@@XZ
?mutable_query@RedisMultiExecRequest@server@mobile@@QEAAPEAV?$basic_string@DU?$char_traits@D@std@@V?$allocator@D@2@@std@@XZ
?mutable_query@RedisPiplineExecRequest@server@mobile@@QEAAPEAV?$basic_string@DU?$char_traits@D@std@@V?$allocator@D@2@@std@@XZ
?mutable_query@UpdateDocRequest@server@mobile@@QEAAPEAV?$basic_string@DU?$char_traits@D@std@@V?$allocator@D@2@@std@@XZ
?mutable_random_padding_header@SessionKey@server@mobile@@QEAAPEAV?$basic_string@DU?$char_traits@D@std@@V?$allocator@D@2@@std@@XZ
?mutable_random_padding_tail@SessionKey@server@mobile@@QEAAPEAV?$basic_string@DU?$char_traits@D@std@@V?$allocator@D@2@@std@@XZ
?mutable_real_class_type@RealEntityCreateInfo@server@mobile@@QEAAPEAV?$basic_string@DU?$char_traits@D@std@@V?$allocator@D@2@@std@@XZ
?mutable_real_entityid@RealEntityCreateInfo@server@mobile@@QEAAPEAV?$basic_string@DU?$char_traits@D@std@@V?$allocator@D@2@@std@@XZ
?mutable_reply_docs@RedisExecResponse@server@mobile@@QEAAPEAV?$basic_string@DU?$char_traits@D@std@@V?$allocator@D@2@@std@@XZ
?mutable_reply_docs@RedisMultiExecResponse@server@mobile@@QEAAPEAV?$basic_string@DU?$char_traits@D@std@@V?$allocator@D@2@@std@@XZ
?mutable_reply_docs@RedisPiplineExecResponse@server@mobile@@QEAAPEAV?$basic_string@DU?$char_traits@D@std@@V?$allocator@D@2@@std@@XZ
?mutable_return_val@Gate2GameReturnVal@server@mobile@@QEAAPEAV?$basic_string@DU?$char_traits@D@std@@V?$allocator@D@2@@std@@XZ
?mutable_return_val@GmReturnVal@server@mobile@@QEAAPEAV?$basic_string@DU?$char_traits@D@std@@V?$allocator@D@2@@std@@XZ
?mutable_routes@CustomServiceMsg@server@mobile@@QEAAPEAV?$basic_string@DU?$char_traits@D@std@@V?$allocator@D@2@@std@@XZ
?mutable_routes@FilterUserDatas@server@mobile@@QEAAPEAV?$basic_string@DU?$char_traits@D@std@@V?$allocator@D@2@@std@@XZ
?mutable_routes@RegistMd5IndexMsg@server@mobile@@QEAAPEAV?$basic_string@DU?$char_traits@D@std@@V?$allocator@D@2@@std@@XZ
?mutable_script_content@Script@server@mobile@@QEAAPEAV?$basic_string@DU?$char_traits@D@std@@V?$allocator@D@2@@std@@XZ
?mutable_seq_key@DeleteDocRequest@server@mobile@@QEAAPEAV?$basic_string@DU?$char_traits@D@std@@V?$allocator@D@2@@std@@XZ
?mutable_seq_key@FindAndModifyDocRequest@server@mobile@@QEAAPEAV?$basic_string@DU?$char_traits@D@std@@V?$allocator@D@2@@std@@XZ
?mutable_seq_key@FindDocRequest@server@mobile@@QEAAPEAV?$basic_string@DU?$char_traits@D@std@@V?$allocator@D@2@@std@@XZ
?mutable_seq_key@InsertDocRequest@server@mobile@@QEAAPEAV?$basic_string@DU?$char_traits@D@std@@V?$allocator@D@2@@std@@XZ
?mutable_seq_key@UpdateDocRequest@server@mobile@@QEAAPEAV?$basic_string@DU?$char_traits@D@std@@V?$allocator@D@2@@std@@XZ
?mutable_server@ClientBindMsg@server@mobile@@QEAAPEAVServerInfo@23@XZ
?mutable_service_info@CustomServiceMsg@server@mobile@@QEAAPEAVCustomServiceInfo@23@XZ
?mutable_service_name@CustomServiceInfo@server@mobile@@QEAAPEAV?$basic_string@DU?$char_traits@D@std@@V?$allocator@D@2@@std@@XZ
?mutable_services@ServiceInfos@server@mobile@@QEAAPEAV?$RepeatedPtrField@VServiceInfo@server@mobile@@@protobuf@google@@XZ
?mutable_services@ServiceInfos@server@mobile@@QEAAPEAVServiceInfo@23@H@Z
?mutable_session_key@SessionKey@server@mobile@@QEAAPEAV?$basic_string@DU?$char_traits@D@std@@V?$allocator@D@2@@std@@XZ
?mutable_sessionid@ClientInfo@server@mobile@@QEAAPEAV?$basic_string@DU?$char_traits@D@std@@V?$allocator@D@2@@std@@XZ
?mutable_skip@FindDocRequest@server@mobile@@QEAAPEAV?$basic_string@DU?$char_traits@D@std@@V?$allocator@D@2@@std@@XZ
?mutable_sort@FindAndModifyDocRequest@server@mobile@@QEAAPEAV?$basic_string@DU?$char_traits@D@std@@V?$allocator@D@2@@std@@XZ
?mutable_sort@FindDocRequest@server@mobile@@QEAAPEAV?$basic_string@DU?$char_traits@D@std@@V?$allocator@D@2@@std@@XZ
?mutable_soul_mailbox@SoulBindMsg@server@mobile@@QEAAPEAVEntityMailbox@23@XZ
?mutable_src_srv@RealEntityCreateInfo@server@mobile@@QEAAPEAVServerInfo@23@XZ
?mutable_srcmb@ForwardMessageHeader@server@mobile@@QEAAPEAVEntityMailbox@23@XZ
?mutable_strvalue@FilterDataObj@server@mobile@@QEAAPEAV?$basic_string@DU?$char_traits@D@std@@V?$allocator@D@2@@std@@XZ
?mutable_unknown_fields@ActiveCompress@server@mobile@@QEAAPEAVUnknownFieldSet@protobuf@google@@XZ
?mutable_unknown_fields@CallDBRequest@server@mobile@@QEAAPEAVUnknownFieldSet@protobuf@google@@XZ
?mutable_unknown_fields@CallDBResponse@server@mobile@@QEAAPEAVUnknownFieldSet@protobuf@google@@XZ
?mutable_unknown_fields@CallbackId@server@mobile@@QEAAPEAVUnknownFieldSet@protobuf@google@@XZ
?mutable_unknown_fields@ClientBindMsg@server@mobile@@QEAAPEAVUnknownFieldSet@protobuf@google@@XZ
?mutable_unknown_fields@ClientInfo@server@mobile@@QEAAPEAVUnknownFieldSet@protobuf@google@@XZ
?mutable_unknown_fields@CountDocReply@server@mobile@@QEAAPEAVUnknownFieldSet@protobuf@google@@XZ
?mutable_unknown_fields@CountDocRequest@server@mobile@@QEAAPEAVUnknownFieldSet@protobuf@google@@XZ
?mutable_unknown_fields@CreateCollectionReply@server@mobile@@QEAAPEAVUnknownFieldSet@protobuf@google@@XZ
?mutable_unknown_fields@CreateCollectionRequest@server@mobile@@QEAAPEAVUnknownFieldSet@protobuf@google@@XZ
?mutable_unknown_fields@CtrlType@server@mobile@@QEAAPEAVUnknownFieldSet@protobuf@google@@XZ
?mutable_unknown_fields@CustomServiceInfo@server@mobile@@QEAAPEAVUnknownFieldSet@protobuf@google@@XZ
?mutable_unknown_fields@CustomServiceMsg@server@mobile@@QEAAPEAVUnknownFieldSet@protobuf@google@@XZ
?mutable_unknown_fields@DbServerInfo@server@mobile@@QEAAPEAVUnknownFieldSet@protobuf@google@@XZ
?mutable_unknown_fields@DbStatusMessage@server@mobile@@QEAAPEAVUnknownFieldSet@protobuf@google@@XZ
?mutable_unknown_fields@DeleteDocReply@server@mobile@@QEAAPEAVUnknownFieldSet@protobuf@google@@XZ
?mutable_unknown_fields@DeleteDocRequest@server@mobile@@QEAAPEAVUnknownFieldSet@protobuf@google@@XZ
?mutable_unknown_fields@EncryptString@server@mobile@@QEAAPEAVUnknownFieldSet@protobuf@google@@XZ
?mutable_unknown_fields@EntityInfoHeader@server@mobile@@QEAAPEAVUnknownFieldSet@protobuf@google@@XZ
?mutable_unknown_fields@FilterDataObj@server@mobile@@QEAAPEAVUnknownFieldSet@protobuf@google@@XZ
?mutable_unknown_fields@FilterUserDatas@server@mobile@@QEAAPEAVUnknownFieldSet@protobuf@google@@XZ
?mutable_unknown_fields@FindAndModifyDocReply@server@mobile@@QEAAPEAVUnknownFieldSet@protobuf@google@@XZ
?mutable_unknown_fields@FindAndModifyDocRequest@server@mobile@@QEAAPEAVUnknownFieldSet@protobuf@google@@XZ
?mutable_unknown_fields@FindDocReply@server@mobile@@QEAAPEAVUnknownFieldSet@protobuf@google@@XZ
?mutable_unknown_fields@FindDocRequest@server@mobile@@QEAAPEAVUnknownFieldSet@protobuf@google@@XZ
?mutable_unknown_fields@ForwardMessageHeader@server@mobile@@QEAAPEAVUnknownFieldSet@protobuf@google@@XZ
?mutable_unknown_fields@GameLoad@server@mobile@@QEAAPEAVUnknownFieldSet@protobuf@google@@XZ
?mutable_unknown_fields@GameServerInfos@server@mobile@@QEAAPEAVUnknownFieldSet@protobuf@google@@XZ
?mutable_unknown_fields@Gate2GameReturnVal@server@mobile@@QEAAPEAVUnknownFieldSet@protobuf@google@@XZ
?mutable_unknown_fields@GateInfo@server@mobile@@QEAAPEAVUnknownFieldSet@protobuf@google@@XZ
?mutable_unknown_fields@GateMailbox@server@mobile@@QEAAPEAVUnknownFieldSet@protobuf@google@@XZ
?mutable_unknown_fields@GateMessage@server@mobile@@QEAAPEAVUnknownFieldSet@protobuf@google@@XZ
?mutable_unknown_fields@GateReturnVal@server@mobile@@QEAAPEAVUnknownFieldSet@protobuf@google@@XZ
?mutable_unknown_fields@GlobalData@server@mobile@@QEAAPEAVUnknownFieldSet@protobuf@google@@XZ
?mutable_unknown_fields@GlobalEntityRegMsg@server@mobile@@QEAAPEAVUnknownFieldSet@protobuf@google@@XZ
?mutable_unknown_fields@GlobalMessage@server@mobile@@QEAAPEAVUnknownFieldSet@protobuf@google@@XZ
?mutable_unknown_fields@GmReturnVal@server@mobile@@QEAAPEAVUnknownFieldSet@protobuf@google@@XZ
?mutable_unknown_fields@InsertDocReply@server@mobile@@QEAAPEAVUnknownFieldSet@protobuf@google@@XZ
?mutable_unknown_fields@InsertDocRequest@server@mobile@@QEAAPEAVUnknownFieldSet@protobuf@google@@XZ
?mutable_unknown_fields@LocalIdMessage@server@mobile@@QEAAPEAVUnknownFieldSet@protobuf@google@@XZ
?mutable_unknown_fields@MessageIp@server@mobile@@QEAAPEAVUnknownFieldSet@protobuf@google@@XZ
?mutable_unknown_fields@OperIndexReply@server@mobile@@QEAAPEAVUnknownFieldSet@protobuf@google@@XZ
?mutable_unknown_fields@OperIndexRequest@server@mobile@@QEAAPEAVUnknownFieldSet@protobuf@google@@XZ
?mutable_unknown_fields@RealEntityCreateInfo@server@mobile@@QEAAPEAVUnknownFieldSet@protobuf@google@@XZ
?mutable_unknown_fields@RedisExecRequest@server@mobile@@QEAAPEAVUnknownFieldSet@protobuf@google@@XZ
?mutable_unknown_fields@RedisExecResponse@server@mobile@@QEAAPEAVUnknownFieldSet@protobuf@google@@XZ
?mutable_unknown_fields@RedisMultiExecRequest@server@mobile@@QEAAPEAVUnknownFieldSet@protobuf@google@@XZ
?mutable_unknown_fields@RedisMultiExecResponse@server@mobile@@QEAAPEAVUnknownFieldSet@protobuf@google@@XZ
?mutable_unknown_fields@RedisPiplineExecRequest@server@mobile@@QEAAPEAVUnknownFieldSet@protobuf@google@@XZ
?mutable_unknown_fields@RedisPiplineExecResponse@server@mobile@@QEAAPEAVUnknownFieldSet@protobuf@google@@XZ
?mutable_unknown_fields@RedisStatusMessage@server@mobile@@QEAAPEAVUnknownFieldSet@protobuf@google@@XZ
?mutable_unknown_fields@RegistMd5IndexMsg@server@mobile@@QEAAPEAVUnknownFieldSet@protobuf@google@@XZ
?mutable_unknown_fields@RunProcedureReply@server@mobile@@QEAAPEAVUnknownFieldSet@protobuf@google@@XZ
?mutable_unknown_fields@RunProcedureRequest@server@mobile@@QEAAPEAVUnknownFieldSet@protobuf@google@@XZ
?mutable_unknown_fields@Script@server@mobile@@QEAAPEAVUnknownFieldSet@protobuf@google@@XZ
?mutable_unknown_fields@ServerMethod@server@mobile@@QEAAPEAVUnknownFieldSet@protobuf@google@@XZ
?mutable_unknown_fields@ServiceInfos@server@mobile@@QEAAPEAVUnknownFieldSet@protobuf@google@@XZ
?mutable_unknown_fields@SessionIsp@server@mobile@@QEAAPEAVUnknownFieldSet@protobuf@google@@XZ
?mutable_unknown_fields@SessionKey@server@mobile@@QEAAPEAVUnknownFieldSet@protobuf@google@@XZ
?mutable_unknown_fields@SessionSeed@server@mobile@@QEAAPEAVUnknownFieldSet@protobuf@google@@XZ
?mutable_unknown_fields@SoulBindMsg@server@mobile@@QEAAPEAVUnknownFieldSet@protobuf@google@@XZ
?mutable_unknown_fields@SoulUnbindMsg@server@mobile@@QEAAPEAVUnknownFieldSet@protobuf@google@@XZ
?mutable_unknown_fields@UpdateDocReply@server@mobile@@QEAAPEAVUnknownFieldSet@protobuf@google@@XZ
?mutable_unknown_fields@UpdateDocRequest@server@mobile@@QEAAPEAVUnknownFieldSet@protobuf@google@@XZ
?mutable_update@FindAndModifyDocRequest@server@mobile@@QEAAPEAV?$basic_string@DU?$char_traits@D@std@@V?$allocator@D@2@@std@@XZ
?mutable_userdatas@FilterUserDatas@server@mobile@@QEAAPEAV?$RepeatedPtrField@VFilterDataObj@server@mobile@@@protobuf@google@@XZ
?mutable_userdatas@FilterUserDatas@server@mobile@@QEAAPEAVFilterDataObj@23@H@Z
?mutable_value@GlobalData@server@mobile@@QEAAPEAV?$basic_string@DU?$char_traits@D@std@@V?$allocator@D@2@@std@@XZ
?neox_engine_main@neox_engine@neox@@YAHPEBD@Z
?new_@FindAndModifyDocRequest@server@mobile@@QEBA_NXZ
?on_guard_destory_ex@service@async@@UEAAX_NAEBVtuple@python@boost@@@Z
?on_ping_message@IGateClient@server@mobile@@UEAAXPEAVRpcController@protobuf@google@@PEBVPingMessage@23@PEAVVoid@23@PEAVClosure@56@@Z
?on_ping_message@IGateClient_Stub@server@mobile@@UEAAXPEAVRpcController@protobuf@google@@PEBVPingMessage@23@PEAVVoid@23@PEAVClosure@56@@Z
?on_traceroute_message@IGateClient@server@mobile@@UEAAXPEAVRpcController@protobuf@google@@PEBVTraceRoute@23@PEAVVoid@23@PEAVClosure@56@@Z
?on_traceroute_message@IGateClient_Stub@server@mobile@@UEAAXPEAVRpcController@protobuf@google@@PEBVTraceRoute@23@PEAVVoid@23@PEAVClosure@56@@Z
?op@CtrlType@server@mobile@@QEBA?AW4CtrlType_CtrlOp@23@XZ
?operations@CreateCollectionRequest@server@mobile@@QEBAAEBV?$basic_string@DU?$char_traits@D@std@@V?$allocator@D@2@@std@@XZ
?override@GlobalEntityRegMsg@server@mobile@@QEBA_NXZ
?parameters@CustomServiceMsg@server@mobile@@QEBAAEBV?$basic_string@DU?$char_traits@D@std@@V?$allocator@D@2@@std@@XZ
?parameters@GateMessage@server@mobile@@QEBAAEBV?$basic_string@DU?$char_traits@D@std@@V?$allocator@D@2@@std@@XZ
?params@ServerMethod@server@mobile@@QEBAAEBV?$basic_string@DU?$char_traits@D@std@@V?$allocator@D@2@@std@@XZ
?ping_message@IGateService@server@mobile@@UEAAXPEAVRpcController@protobuf@google@@PEBVPingMessage@23@PEAVVoid@23@PEAVClosure@56@@Z
?ping_message@IGateService_Stub@server@mobile@@UEAAXPEAVRpcController@protobuf@google@@PEBVPingMessage@23@PEAVVoid@23@PEAVClosure@56@@Z
?port@ClientInfo@server@mobile@@QEBAHXZ
?pre_transfer_client@IGameClient@server@mobile@@UEAAXPEAVRpcController@protobuf@google@@PEBVClientBindMsg@23@PEAVVoid@23@PEAVClosure@56@@Z
?pre_transfer_client@IGameClient_Stub@server@mobile@@UEAAXPEAVRpcController@protobuf@google@@PEBVClientBindMsg@23@PEAVVoid@23@PEAVClosure@56@@Z
?pre_transfer_client_callback@IGameService@server@mobile@@UEAAXPEAVRpcController@protobuf@google@@PEBVGateReturnVal@23@PEAVVoid@23@PEAVClosure@56@@Z
?pre_transfer_client_callback@IGameService_Stub@server@mobile@@UEAAXPEAVRpcController@protobuf@google@@PEBVGateReturnVal@23@PEAVVoid@23@PEAVClosure@56@@Z
?pre_transfer_entityid@RealEntityCreateInfo@server@mobile@@QEBAAEBV?$basic_string@DU?$char_traits@D@std@@V?$allocator@D@2@@std@@XZ
?print_filter@@YAXH@Z
?proc@RunProcedureRequest@server@mobile@@QEBAAEBV?$basic_string@DU?$char_traits@D@std@@V?$allocator@D@2@@std@@XZ
?protobuf_AddDesc_client_5fgate_2eproto@server@mobile@@YAXXZ
?protobuf_AddDesc_dbmanager_2eproto@server@mobile@@YAXXZ
?protobuf_AddDesc_gamemanager_2eproto@server@mobile@@YAXXZ
?protobuf_AddDesc_gate_5fgame_2eproto@server@mobile@@YAXXZ
?push_request@service_manager@async@@QEAAXPEAVservice_call_helper@2@@Z
?query@CountDocRequest@server@mobile@@QEBAAEBV?$basic_string@DU?$char_traits@D@std@@V?$allocator@D@2@@std@@XZ
?query@DeleteDocRequest@server@mobile@@QEBAAEBV?$basic_string@DU?$char_traits@D@std@@V?$allocator@D@2@@std@@XZ
?query@FindAndModifyDocRequest@server@mobile@@QEBAAEBV?$basic_string@DU?$char_traits@D@std@@V?$allocator@D@2@@std@@XZ
?query@FindDocRequest@server@mobile@@QEBAAEBV?$basic_string@DU?$char_traits@D@std@@V?$allocator@D@2@@std@@XZ
?query@OperIndexRequest@server@mobile@@QEBAAEBV?$basic_string@DU?$char_traits@D@std@@V?$allocator@D@2@@std@@XZ
?query@RedisExecRequest@server@mobile@@QEBAAEBV?$basic_string@DU?$char_traits@D@std@@V?$allocator@D@2@@std@@XZ
?query@RedisMultiExecRequest@server@mobile@@QEBAAEBV?$basic_string@DU?$char_traits@D@std@@V?$allocator@D@2@@std@@XZ
?query@RedisPiplineExecRequest@server@mobile@@QEBAAEBV?$basic_string@DU?$char_traits@D@std@@V?$allocator@D@2@@std@@XZ
?query@UpdateDocRequest@server@mobile@@QEBAAEBV?$basic_string@DU?$char_traits@D@std@@V?$allocator@D@2@@std@@XZ
?random_padding_header@SessionKey@server@mobile@@QEBAAEBV?$basic_string@DU?$char_traits@D@std@@V?$allocator@D@2@@std@@XZ
?random_padding_tail@SessionKey@server@mobile@@QEBAAEBV?$basic_string@DU?$char_traits@D@std@@V?$allocator@D@2@@std@@XZ
?range_num@LocalIdMessage@server@mobile@@QEBAHXZ
?read_pref@FindDocRequest@server@mobile@@QEBAHXZ
?real_class_type@RealEntityCreateInfo@server@mobile@@QEBAAEBV?$basic_string@DU?$char_traits@D@std@@V?$allocator@D@2@@std@@XZ
?real_entity_created@IGameClient@server@mobile@@UEAAXPEAVRpcController@protobuf@google@@PEBVEntityMailbox@23@PEAVVoid@23@PEAVClosure@56@@Z
?real_entity_created@IGameClient_Stub@server@mobile@@UEAAXPEAVRpcController@protobuf@google@@PEBVEntityMailbox@23@PEAVVoid@23@PEAVClosure@56@@Z
?real_entity_created@IGameService@server@mobile@@UEAAXPEAVRpcController@protobuf@google@@PEBVEntityMailbox@23@PEAVVoid@23@PEAVClosure@56@@Z
?real_entity_created@IGameService_Stub@server@mobile@@UEAAXPEAVRpcController@protobuf@google@@PEBVEntityMailbox@23@PEAVVoid@23@PEAVClosure@56@@Z
?real_entityid@RealEntityCreateInfo@server@mobile@@QEBAAEBV?$basic_string@DU?$char_traits@D@std@@V?$allocator@D@2@@std@@XZ
?redis_exec@IDbManager@server@mobile@@UEAAXPEAVRpcController@protobuf@google@@PEBVRedisExecRequest@23@PEAVVoid@23@PEAVClosure@56@@Z
?redis_exec@IDbManager_Stub@server@mobile@@UEAAXPEAVRpcController@protobuf@google@@PEBVRedisExecRequest@23@PEAVVoid@23@PEAVClosure@56@@Z
?redis_exec_reply@IDbManagerClient@server@mobile@@UEAAXPEAVRpcController@protobuf@google@@PEBVRedisExecResponse@23@PEAVVoid@23@PEAVClosure@56@@Z
?redis_exec_reply@IDbManagerClient_Stub@server@mobile@@UEAAXPEAVRpcController@protobuf@google@@PEBVRedisExecResponse@23@PEAVVoid@23@PEAVClosure@56@@Z
?redis_multi_exec@IDbManager@server@mobile@@UEAAXPEAVRpcController@protobuf@google@@PEBVRedisMultiExecRequest@23@PEAVVoid@23@PEAVClosure@56@@Z
?redis_multi_exec@IDbManager_Stub@server@mobile@@UEAAXPEAVRpcController@protobuf@google@@PEBVRedisMultiExecRequest@23@PEAVVoid@23@PEAVClosure@56@@Z
?redis_multi_exec_reply@IDbManagerClient@server@mobile@@UEAAXPEAVRpcController@protobuf@google@@PEBVRedisMultiExecResponse@23@PEAVVoid@23@PEAVClosure@56@@Z
?redis_multi_exec_reply@IDbManagerClient_Stub@server@mobile@@UEAAXPEAVRpcController@protobuf@google@@PEBVRedisMultiExecResponse@23@PEAVVoid@23@PEAVClosure@56@@Z
?redis_pipline_exec@IDbManager@server@mobile@@UEAAXPEAVRpcController@protobuf@google@@PEBVRedisPiplineExecRequest@23@PEAVVoid@23@PEAVClosure@56@@Z
?redis_pipline_exec@IDbManager_Stub@server@mobile@@UEAAXPEAVRpcController@protobuf@google@@PEBVRedisPiplineExecRequest@23@PEAVVoid@23@PEAVClosure@56@@Z
?redis_pipline_exec_reply@IDbManagerClient@server@mobile@@UEAAXPEAVRpcController@protobuf@google@@PEBVRedisPiplineExecResponse@23@PEAVVoid@23@PEAVClosure@56@@Z
?redis_pipline_exec_reply@IDbManagerClient_Stub@server@mobile@@UEAAXPEAVRpcController@protobuf@google@@PEBVRedisPiplineExecResponse@23@PEAVVoid@23@PEAVClosure@56@@Z
?redis_status@IDbManagerClient@server@mobile@@UEAAXPEAVRpcController@protobuf@google@@PEBVRedisStatusMessage@23@PEAVVoid@23@PEAVClosure@56@@Z
?redis_status@IDbManagerClient_Stub@server@mobile@@UEAAXPEAVRpcController@protobuf@google@@PEBVRedisStatusMessage@23@PEAVVoid@23@PEAVClosure@56@@Z
?reg_client@IDbManager@server@mobile@@UEAAXPEAVRpcController@protobuf@google@@PEBVServerInfo@23@PEAVVoid@23@PEAVClosure@56@@Z
?reg_client@IDbManager_Stub@server@mobile@@UEAAXPEAVRpcController@protobuf@google@@PEBVServerInfo@23@PEAVVoid@23@PEAVClosure@56@@Z
?reg_dbmanager@IGameManager@server@mobile@@UEAAXPEAVRpcController@protobuf@google@@PEBVDbServerInfo@23@PEAVVoid@23@PEAVClosure@56@@Z
?reg_dbmanager@IGameManager_Stub@server@mobile@@UEAAXPEAVRpcController@protobuf@google@@PEBVDbServerInfo@23@PEAVVoid@23@PEAVClosure@56@@Z
?reg_entity_mailbox@IGameManager@server@mobile@@UEAAXPEAVRpcController@protobuf@google@@PEBVGlobalEntityRegMsg@23@PEAVVoid@23@PEAVClosure@56@@Z
?reg_entity_mailbox@IGameManagerClient@server@mobile@@UEAAXPEAVRpcController@protobuf@google@@PEBVGlobalEntityRegMsg@23@PEAVVoid@23@PEAVClosure@56@@Z
?reg_entity_mailbox@IGameManagerClient_Stub@server@mobile@@UEAAXPEAVRpcController@protobuf@google@@PEBVGlobalEntityRegMsg@23@PEAVVoid@23@PEAVClosure@56@@Z
?reg_entity_mailbox@IGameManager_Stub@server@mobile@@UEAAXPEAVRpcController@protobuf@google@@PEBVGlobalEntityRegMsg@23@PEAVVoid@23@PEAVClosure@56@@Z
?reg_gameserver@IGameManager@server@mobile@@UEAAXPEAVRpcController@protobuf@google@@PEBVServerInfo@23@PEAVVoid@23@PEAVClosure@56@@Z
?reg_gameserver@IGameManager_Stub@server@mobile@@UEAAXPEAVRpcController@protobuf@google@@PEBVServerInfo@23@PEAVVoid@23@PEAVClosure@56@@Z
?reg_gateserver@IGameService@server@mobile@@UEAAXPEAVRpcController@protobuf@google@@PEBVGateInfo@23@PEAVVoid@23@PEAVClosure@56@@Z
?reg_gateserver@IGameService_Stub@server@mobile@@UEAAXPEAVRpcController@protobuf@google@@PEBVGateInfo@23@PEAVVoid@23@PEAVClosure@56@@Z
?reg_md5_index@IGameClient@server@mobile@@UEAAXPEAVRpcController@protobuf@google@@PEBVRegistMd5IndexMsg@23@PEAVVoid@23@PEAVClosure@56@@Z
?reg_md5_index@IGameClient_Stub@server@mobile@@UEAAXPEAVRpcController@protobuf@google@@PEBVRegistMd5IndexMsg@23@PEAVVoid@23@PEAVClosure@56@@Z
?reg_md5_index@IGameService@server@mobile@@UEAAXPEAVRpcController@protobuf@google@@PEBVRegistMd5IndexMsg@23@PEAVVoid@23@PEAVClosure@56@@Z
?reg_md5_index@IGameService_Stub@server@mobile@@UEAAXPEAVRpcController@protobuf@google@@PEBVRegistMd5IndexMsg@23@PEAVVoid@23@PEAVClosure@56@@Z
?reg_md5_index@IGateClient@server@mobile@@UEAAXPEAVRpcController@protobuf@google@@PEBVMd5OrIndex@23@PEAVVoid@23@PEAVClosure@56@@Z
?reg_md5_index@IGateClient_Stub@server@mobile@@UEAAXPEAVRpcController@protobuf@google@@PEBVMd5OrIndex@23@PEAVVoid@23@PEAVClosure@56@@Z
?reg_md5_index@IGateService@server@mobile@@UEAAXPEAVRpcController@protobuf@google@@PEBVMd5OrIndex@23@PEAVVoid@23@PEAVClosure@56@@Z
?reg_md5_index@IGateService_Stub@server@mobile@@UEAAXPEAVRpcController@protobuf@google@@PEBVMd5OrIndex@23@PEAVVoid@23@PEAVClosure@56@@Z
?reg_service@IGameClient@server@mobile@@UEAAXPEAVRpcController@protobuf@google@@PEBVServiceInfo@23@PEAVVoid@23@PEAVClosure@56@@Z
?reg_service@IGameClient_Stub@server@mobile@@UEAAXPEAVRpcController@protobuf@google@@PEBVServiceInfo@23@PEAVVoid@23@PEAVClosure@56@@Z
?release_active_stream_str@ActiveCompress@server@mobile@@QEAAPEAV?$basic_string@DU?$char_traits@D@std@@V?$allocator@D@2@@std@@XZ
?release_args@CallDBRequest@server@mobile@@QEAAPEAV?$basic_string@DU?$char_traits@D@std@@V?$allocator@D@2@@std@@XZ
?release_args@CallDBResponse@server@mobile@@QEAAPEAV?$basic_string@DU?$char_traits@D@std@@V?$allocator@D@2@@std@@XZ
?release_args@RedisExecRequest@server@mobile@@QEAAPEAV?$basic_string@DU?$char_traits@D@std@@V?$allocator@D@2@@std@@XZ
?release_args@RunProcedureRequest@server@mobile@@QEAAPEAV?$basic_string@DU?$char_traits@D@std@@V?$allocator@D@2@@std@@XZ
?release_avatar_mailbox@SoulBindMsg@server@mobile@@QEAAPEAVEntityMailbox@23@XZ
?release_clientid@ClientInfo@server@mobile@@QEAAPEAV?$basic_string@DU?$char_traits@D@std@@V?$allocator@D@2@@std@@XZ
?release_clientid@ForwardMessageHeader@server@mobile@@QEAAPEAV?$basic_string@DU?$char_traits@D@std@@V?$allocator@D@2@@std@@XZ
?release_clientinfo@ClientBindMsg@server@mobile@@QEAAPEAVClientInfo@23@XZ
?release_clientinfo@EntityInfoHeader@server@mobile@@QEAAPEAVClientInfo@23@XZ
?release_clientinfo@GateMailbox@server@mobile@@QEAAPEAVClientInfo@23@XZ
?release_clientinfo@GateReturnVal@server@mobile@@QEAAPEAVClientInfo@23@XZ
?release_clientinfo@SoulBindMsg@server@mobile@@QEAAPEAVClientInfo@23@XZ
?release_clientinfo@SoulUnbindMsg@server@mobile@@QEAAPEAVClientInfo@23@XZ
?release_clientinfocache@RealEntityCreateInfo@server@mobile@@QEAAPEAV?$basic_string@DU?$char_traits@D@std@@V?$allocator@D@2@@std@@XZ
?release_cmcc@SoulBindMsg@server@mobile@@QEAAPEAV?$basic_string@DU?$char_traits@D@std@@V?$allocator@D@2@@std@@XZ
?release_collection@CountDocRequest@server@mobile@@QEAAPEAV?$basic_string@DU?$char_traits@D@std@@V?$allocator@D@2@@std@@XZ
?release_collection@CreateCollectionRequest@server@mobile@@QEAAPEAV?$basic_string@DU?$char_traits@D@std@@V?$allocator@D@2@@std@@XZ
?release_collection@DeleteDocRequest@server@mobile@@QEAAPEAV?$basic_string@DU?$char_traits@D@std@@V?$allocator@D@2@@std@@XZ
?release_collection@FindAndModifyDocRequest@server@mobile@@QEAAPEAV?$basic_string@DU?$char_traits@D@std@@V?$allocator@D@2@@std@@XZ
?release_collection@FindDocRequest@server@mobile@@QEAAPEAV?$basic_string@DU?$char_traits@D@std@@V?$allocator@D@2@@std@@XZ
?release_collection@InsertDocRequest@server@mobile@@QEAAPEAV?$basic_string@DU?$char_traits@D@std@@V?$allocator@D@2@@std@@XZ
?release_collection@OperIndexRequest@server@mobile@@QEAAPEAV?$basic_string@DU?$char_traits@D@std@@V?$allocator@D@2@@std@@XZ
?release_collection@UpdateDocRequest@server@mobile@@QEAAPEAV?$basic_string@DU?$char_traits@D@std@@V?$allocator@D@2@@std@@XZ
?release_content@RealEntityCreateInfo@server@mobile@@QEAAPEAV?$basic_string@DU?$char_traits@D@std@@V?$allocator@D@2@@std@@XZ
?release_ctcc@SoulBindMsg@server@mobile@@QEAAPEAV?$basic_string@DU?$char_traits@D@std@@V?$allocator@D@2@@std@@XZ
?release_cucc@SoulBindMsg@server@mobile@@QEAAPEAV?$basic_string@DU?$char_traits@D@std@@V?$allocator@D@2@@std@@XZ
?release_db@CountDocRequest@server@mobile@@QEAAPEAV?$basic_string@DU?$char_traits@D@std@@V?$allocator@D@2@@std@@XZ
?release_db@CreateCollectionRequest@server@mobile@@QEAAPEAV?$basic_string@DU?$char_traits@D@std@@V?$allocator@D@2@@std@@XZ
?release_db@DeleteDocRequest@server@mobile@@QEAAPEAV?$basic_string@DU?$char_traits@D@std@@V?$allocator@D@2@@std@@XZ
?release_db@FindAndModifyDocRequest@server@mobile@@QEAAPEAV?$basic_string@DU?$char_traits@D@std@@V?$allocator@D@2@@std@@XZ
?release_db@FindDocRequest@server@mobile@@QEAAPEAV?$basic_string@DU?$char_traits@D@std@@V?$allocator@D@2@@std@@XZ
?release_db@InsertDocRequest@server@mobile@@QEAAPEAV?$basic_string@DU?$char_traits@D@std@@V?$allocator@D@2@@std@@XZ
?release_db@OperIndexRequest@server@mobile@@QEAAPEAV?$basic_string@DU?$char_traits@D@std@@V?$allocator@D@2@@std@@XZ
?release_db@RunProcedureRequest@server@mobile@@QEAAPEAV?$basic_string@DU?$char_traits@D@std@@V?$allocator@D@2@@std@@XZ
?release_db@UpdateDocRequest@server@mobile@@QEAAPEAV?$basic_string@DU?$char_traits@D@std@@V?$allocator@D@2@@std@@XZ
?release_db_name@DbServerInfo@server@mobile@@QEAAPEAV?$basic_string@DU?$char_traits@D@std@@V?$allocator@D@2@@std@@XZ
?release_desc@OperIndexRequest@server@mobile@@QEAAPEAV?$basic_string@DU?$char_traits@D@std@@V?$allocator@D@2@@std@@XZ
?release_doc@FindAndModifyDocReply@server@mobile@@QEAAPEAV?$basic_string@DU?$char_traits@D@std@@V?$allocator@D@2@@std@@XZ
?release_doc@InsertDocRequest@server@mobile@@QEAAPEAV?$basic_string@DU?$char_traits@D@std@@V?$allocator@D@2@@std@@XZ
?release_doc@RunProcedureReply@server@mobile@@QEAAPEAV?$basic_string@DU?$char_traits@D@std@@V?$allocator@D@2@@std@@XZ
?release_doc@UpdateDocRequest@server@mobile@@QEAAPEAV?$basic_string@DU?$char_traits@D@std@@V?$allocator@D@2@@std@@XZ
?release_dst_server@EntityInfoHeader@server@mobile@@QEAAPEAVServerInfo@23@XZ
?release_dst_srv@RealEntityCreateInfo@server@mobile@@QEAAPEAVServerInfo@23@XZ
?release_dstmb@ForwardMessageHeader@server@mobile@@QEAAPEAVEntityMailbox@23@XZ
?release_encryptstr@EncryptString@server@mobile@@QEAAPEAV?$basic_string@DU?$char_traits@D@std@@V?$allocator@D@2@@std@@XZ
?release_entity_uniq_name@GlobalEntityRegMsg@server@mobile@@QEAAPEAV?$basic_string@DU?$char_traits@D@std@@V?$allocator@D@2@@std@@XZ
?release_entityid@ClientBindMsg@server@mobile@@QEAAPEAV?$basic_string@DU?$char_traits@D@std@@V?$allocator@D@2@@std@@XZ
?release_entityid@GateMailbox@server@mobile@@QEAAPEAV?$basic_string@DU?$char_traits@D@std@@V?$allocator@D@2@@std@@XZ
?release_error_msg@Gate2GameReturnVal@server@mobile@@QEAAPEAV?$basic_string@DU?$char_traits@D@std@@V?$allocator@D@2@@std@@XZ
?release_error_msg@GmReturnVal@server@mobile@@QEAAPEAV?$basic_string@DU?$char_traits@D@std@@V?$allocator@D@2@@std@@XZ
?release_fields@FindAndModifyDocRequest@server@mobile@@QEAAPEAV?$basic_string@DU?$char_traits@D@std@@V?$allocator@D@2@@std@@XZ
?release_fields@FindDocRequest@server@mobile@@QEAAPEAV?$basic_string@DU?$char_traits@D@std@@V?$allocator@D@2@@std@@XZ
?release_gateid@ClientInfo@server@mobile@@QEAAPEAV?$basic_string@DU?$char_traits@D@std@@V?$allocator@D@2@@std@@XZ
?release_gateid@GateInfo@server@mobile@@QEAAPEAV?$basic_string@DU?$char_traits@D@std@@V?$allocator@D@2@@std@@XZ
?release_hint@FindDocRequest@server@mobile@@QEAAPEAV?$basic_string@DU?$char_traits@D@std@@V?$allocator@D@2@@std@@XZ
?release_id@CustomServiceInfo@server@mobile@@QEAAPEAV?$basic_string@DU?$char_traits@D@std@@V?$allocator@D@2@@std@@XZ
?release_insert_id@InsertDocReply@server@mobile@@QEAAPEAV?$basic_string@DU?$char_traits@D@std@@V?$allocator@D@2@@std@@XZ
?release_ip@ClientInfo@server@mobile@@QEAAPEAV?$basic_string@DU?$char_traits@D@std@@V?$allocator@D@2@@std@@XZ
?release_ip@MessageIp@server@mobile@@QEAAPEAV?$basic_string@DU?$char_traits@D@std@@V?$allocator@D@2@@std@@XZ
?release_key@FilterDataObj@server@mobile@@QEAAPEAV?$basic_string@DU?$char_traits@D@std@@V?$allocator@D@2@@std@@XZ
?release_key@GlobalData@server@mobile@@QEAAPEAV?$basic_string@DU?$char_traits@D@std@@V?$allocator@D@2@@std@@XZ
?release_kwargs@RedisExecRequest@server@mobile@@QEAAPEAV?$basic_string@DU?$char_traits@D@std@@V?$allocator@D@2@@std@@XZ
?release_kwargs@RunProcedureRequest@server@mobile@@QEAAPEAV?$basic_string@DU?$char_traits@D@std@@V?$allocator@D@2@@std@@XZ
?release_mailbox@GlobalEntityRegMsg@server@mobile@@QEAAPEAVEntityMailbox@23@XZ
?release_md5_idx@RegistMd5IndexMsg@server@mobile@@QEAAPEAVMd5OrIndex@23@XZ
?release_message@GlobalMessage@server@mobile@@QEAAPEAV?$basic_string@DU?$char_traits@D@std@@V?$allocator@D@2@@std@@XZ
?release_method@CallDBRequest@server@mobile@@QEAAPEAV?$basic_string@DU?$char_traits@D@std@@V?$allocator@D@2@@std@@XZ
?release_method@CustomServiceMsg@server@mobile@@QEAAPEAV?$basic_string@DU?$char_traits@D@std@@V?$allocator@D@2@@std@@XZ
?release_method@GateMessage@server@mobile@@QEAAPEAVMd5OrIndex@23@XZ
?release_method@ServerMethod@server@mobile@@QEAAPEAV?$basic_string@DU?$char_traits@D@std@@V?$allocator@D@2@@std@@XZ
?release_operations@CreateCollectionRequest@server@mobile@@QEAAPEAV?$basic_string@DU?$char_traits@D@std@@V?$allocator@D@2@@std@@XZ
?release_parameters@CustomServiceMsg@server@mobile@@QEAAPEAV?$basic_string@DU?$char_traits@D@std@@V?$allocator@D@2@@std@@XZ
?release_parameters@GateMessage@server@mobile@@QEAAPEAV?$basic_string@DU?$char_traits@D@std@@V?$allocator@D@2@@std@@XZ
?release_params@ServerMethod@server@mobile@@QEAAPEAV?$basic_string@DU?$char_traits@D@std@@V?$allocator@D@2@@std@@XZ
?release_pre_transfer_entityid@RealEntityCreateInfo@server@mobile@@QEAAPEAV?$basic_string@DU?$char_traits@D@std@@V?$allocator@D@2@@std@@XZ
?release_proc@RunProcedureRequest@server@mobile@@QEAAPEAV?$basic_string@DU?$char_traits@D@std@@V?$allocator@D@2@@std@@XZ
?release_query@CountDocRequest@server@mobile@@QEAAPEAV?$basic_string@DU?$char_traits@D@std@@V?$allocator@D@2@@std@@XZ
?release_query@DeleteDocRequest@server@mobile@@QEAAPEAV?$basic_string@DU?$char_traits@D@std@@V?$allocator@D@2@@std@@XZ
?release_query@FindAndModifyDocRequest@server@mobile@@QEAAPEAV?$basic_string@DU?$char_traits@D@std@@V?$allocator@D@2@@std@@XZ
?release_query@FindDocRequest@server@mobile@@QEAAPEAV?$basic_string@DU?$char_traits@D@std@@V?$allocator@D@2@@std@@XZ
?release_query@OperIndexRequest@server@mobile@@QEAAPEAV?$basic_string@DU?$char_traits@D@std@@V?$allocator@D@2@@std@@XZ
?release_query@RedisExecRequest@server@mobile@@QEAAPEAV?$basic_string@DU?$char_traits@D@std@@V?$allocator@D@2@@std@@XZ
?release_query@RedisMultiExecRequest@server@mobile@@QEAAPEAV?$basic_string@DU?$char_traits@D@std@@V?$allocator@D@2@@std@@XZ
?release_query@RedisPiplineExecRequest@server@mobile@@QEAAPEAV?$basic_string@DU?$char_traits@D@std@@V?$allocator@D@2@@std@@XZ
?release_query@UpdateDocRequest@server@mobile@@QEAAPEAV?$basic_string@DU?$char_traits@D@std@@V?$allocator@D@2@@std@@XZ
?release_random_padding_header@SessionKey@server@mobile@@QEAAPEAV?$basic_string@DU?$char_traits@D@std@@V?$allocator@D@2@@std@@XZ
?release_random_padding_tail@SessionKey@server@mobile@@QEAAPEAV?$basic_string@DU?$char_traits@D@std@@V?$allocator@D@2@@std@@XZ
?release_real_class_type@RealEntityCreateInfo@server@mobile@@QEAAPEAV?$basic_string@DU?$char_traits@D@std@@V?$allocator@D@2@@std@@XZ
?release_real_entityid@RealEntityCreateInfo@server@mobile@@QEAAPEAV?$basic_string@DU?$char_traits@D@std@@V?$allocator@D@2@@std@@XZ
?release_reply_docs@RedisExecResponse@server@mobile@@QEAAPEAV?$basic_string@DU?$char_traits@D@std@@V?$allocator@D@2@@std@@XZ
?release_reply_docs@RedisMultiExecResponse@server@mobile@@QEAAPEAV?$basic_string@DU?$char_traits@D@std@@V?$allocator@D@2@@std@@XZ
?release_reply_docs@RedisPiplineExecResponse@server@mobile@@QEAAPEAV?$basic_string@DU?$char_traits@D@std@@V?$allocator@D@2@@std@@XZ
?release_return_val@Gate2GameReturnVal@server@mobile@@QEAAPEAV?$basic_string@DU?$char_traits@D@std@@V?$allocator@D@2@@std@@XZ
?release_return_val@GmReturnVal@server@mobile@@QEAAPEAV?$basic_string@DU?$char_traits@D@std@@V?$allocator@D@2@@std@@XZ
?release_routes@CustomServiceMsg@server@mobile@@QEAAPEAV?$basic_string@DU?$char_traits@D@std@@V?$allocator@D@2@@std@@XZ
?release_routes@FilterUserDatas@server@mobile@@QEAAPEAV?$basic_string@DU?$char_traits@D@std@@V?$allocator@D@2@@std@@XZ
?release_routes@RegistMd5IndexMsg@server@mobile@@QEAAPEAV?$basic_string@DU?$char_traits@D@std@@V?$allocator@D@2@@std@@XZ
?release_script_content@Script@server@mobile@@QEAAPEAV?$basic_string@DU?$char_traits@D@std@@V?$allocator@D@2@@std@@XZ
?release_seq_key@DeleteDocRequest@server@mobile@@QEAAPEAV?$basic_string@DU?$char_traits@D@std@@V?$allocator@D@2@@std@@XZ
?release_seq_key@FindAndModifyDocRequest@server@mobile@@QEAAPEAV?$basic_string@DU?$char_traits@D@std@@V?$allocator@D@2@@std@@XZ
?release_seq_key@FindDocRequest@server@mobile@@QEAAPEAV?$basic_string@DU?$char_traits@D@std@@V?$allocator@D@2@@std@@XZ
?release_seq_key@InsertDocRequest@server@mobile@@QEAAPEAV?$basic_string@DU?$char_traits@D@std@@V?$allocator@D@2@@std@@XZ
?release_seq_key@UpdateDocRequest@server@mobile@@QEAAPEAV?$basic_string@DU?$char_traits@D@std@@V?$allocator@D@2@@std@@XZ
?release_server@ClientBindMsg@server@mobile@@QEAAPEAVServerInfo@23@XZ
?release_service_info@CustomServiceMsg@server@mobile@@QEAAPEAVCustomServiceInfo@23@XZ
?release_service_name@CustomServiceInfo@server@mobile@@QEAAPEAV?$basic_string@DU?$char_traits@D@std@@V?$allocator@D@2@@std@@XZ
?release_session_key@SessionKey@server@mobile@@QEAAPEAV?$basic_string@DU?$char_traits@D@std@@V?$allocator@D@2@@std@@XZ
?release_sessionid@ClientInfo@server@mobile@@QEAAPEAV?$basic_string@DU?$char_traits@D@std@@V?$allocator@D@2@@std@@XZ
?release_skip@FindDocRequest@server@mobile@@QEAAPEAV?$basic_string@DU?$char_traits@D@std@@V?$allocator@D@2@@std@@XZ
?release_sort@FindAndModifyDocRequest@server@mobile@@QEAAPEAV?$basic_string@DU?$char_traits@D@std@@V?$allocator@D@2@@std@@XZ
?release_sort@FindDocRequest@server@mobile@@QEAAPEAV?$basic_string@DU?$char_traits@D@std@@V?$allocator@D@2@@std@@XZ
?release_soul_mailbox@SoulBindMsg@server@mobile@@QEAAPEAVEntityMailbox@23@XZ
?release_src_srv@RealEntityCreateInfo@server@mobile@@QEAAPEAVServerInfo@23@XZ
?release_srcmb@ForwardMessageHeader@server@mobile@@QEAAPEAVEntityMailbox@23@XZ
?release_strvalue@FilterDataObj@server@mobile@@QEAAPEAV?$basic_string@DU?$char_traits@D@std@@V?$allocator@D@2@@std@@XZ
?release_update@FindAndModifyDocRequest@server@mobile@@QEAAPEAV?$basic_string@DU?$char_traits@D@std@@V?$allocator@D@2@@std@@XZ
?release_value@GlobalData@server@mobile@@QEAAPEAV?$basic_string@DU?$char_traits@D@std@@V?$allocator@D@2@@std@@XZ
?remote_entity_message@IGameManagerClient@server@mobile@@UEAAXPEAVRpcController@protobuf@google@@PEBVEntityMessage@23@PEAVVoid@23@PEAVClosure@56@@Z
?remote_entity_message@IGameManagerClient_Stub@server@mobile@@UEAAXPEAVRpcController@protobuf@google@@PEBVEntityMessage@23@PEAVVoid@23@PEAVClosure@56@@Z
?remove@FindAndModifyDocRequest@server@mobile@@QEBA_NXZ
?reply_docs@RedisExecResponse@server@mobile@@QEBAAEBV?$basic_string@DU?$char_traits@D@std@@V?$allocator@D@2@@std@@XZ
?reply_docs@RedisMultiExecResponse@server@mobile@@QEBAAEBV?$basic_string@DU?$char_traits@D@std@@V?$allocator@D@2@@std@@XZ
?reply_docs@RedisPiplineExecResponse@server@mobile@@QEBAAEBV?$basic_string@DU?$char_traits@D@std@@V?$allocator@D@2@@std@@XZ
?request_ip@IGateService@server@mobile@@UEAAXPEAVRpcController@protobuf@google@@PEBVVoid@23@PEAV723@PEAVClosure@56@@Z
?request_ip@IGateService_Stub@server@mobile@@UEAAXPEAVRpcController@protobuf@google@@PEBVVoid@23@PEAV723@PEAVClosure@56@@Z
?request_isp@IGateService@server@mobile@@UEAAXPEAVRpcController@protobuf@google@@PEBVVoid@23@PEAV723@PEAVClosure@56@@Z
?request_isp@IGateService_Stub@server@mobile@@UEAAXPEAVRpcController@protobuf@google@@PEBVVoid@23@PEAV723@PEAVClosure@56@@Z
?request_normal_attack@IGameService@server@mobile@@UEAAXPEAVRpcController@protobuf@google@@PEBVSkillMessage@23@PEAVVoid@23@PEAVClosure@56@@Z
?request_normal_attack@IGameService_Stub@server@mobile@@UEAAXPEAVRpcController@protobuf@google@@PEBVSkillMessage@23@PEAVVoid@23@PEAVClosure@56@@Z
?request_normal_attack@IGateService@server@mobile@@UEAAXPEAVRpcController@protobuf@google@@PEBVSkillMessage@23@PEAVVoid@23@PEAVClosure@56@@Z
?request_normal_attack@IGateService_Stub@server@mobile@@UEAAXPEAVRpcController@protobuf@google@@PEBVSkillMessage@23@PEAVVoid@23@PEAVClosure@56@@Z
?return_status@Gate2GameReturnVal@server@mobile@@QEBA_NXZ
?return_status@GateReturnVal@server@mobile@@QEBA_NXZ
?return_status@GmReturnVal@server@mobile@@QEBA_NXZ
?return_val@Gate2GameReturnVal@server@mobile@@QEBAAEBV?$basic_string@DU?$char_traits@D@std@@V?$allocator@D@2@@std@@XZ
?return_val@GmReturnVal@server@mobile@@QEBAAEBV?$basic_string@DU?$char_traits@D@std@@V?$allocator@D@2@@std@@XZ
?routes@CustomServiceMsg@server@mobile@@QEBAAEBV?$basic_string@DU?$char_traits@D@std@@V?$allocator@D@2@@std@@XZ
?routes@FilterUserDatas@server@mobile@@QEBAAEBV?$basic_string@DU?$char_traits@D@std@@V?$allocator@D@2@@std@@XZ
?routes@RegistMd5IndexMsg@server@mobile@@QEBAAEBV?$basic_string@DU?$char_traits@D@std@@V?$allocator@D@2@@std@@XZ
?run_script@IGameManager@server@mobile@@UEAAXPEAVRpcController@protobuf@google@@PEBVScript@23@PEAVVoid@23@PEAVClosure@56@@Z
?run_script@IGameManagerClient@server@mobile@@UEAAXPEAVRpcController@protobuf@google@@PEBVScript@23@PEAVVoid@23@PEAVClosure@56@@Z
?run_script@IGameManagerClient_Stub@server@mobile@@UEAAXPEAVRpcController@protobuf@google@@PEBVScript@23@PEAVVoid@23@PEAVClosure@56@@Z
?run_script@IGameManager_Stub@server@mobile@@UEAAXPEAVRpcController@protobuf@google@@PEBVScript@23@PEAVVoid@23@PEAVClosure@56@@Z
?script_content@Script@server@mobile@@QEBAAEBV?$basic_string@DU?$char_traits@D@std@@V?$allocator@D@2@@std@@XZ
?seed@SessionKey@server@mobile@@QEBA_JXZ
?seed@SessionSeed@server@mobile@@QEBA_JXZ
?seed_reply@IGateClient@server@mobile@@UEAAXPEAVRpcController@protobuf@google@@PEBVSessionSeed@23@PEAVVoid@23@PEAVClosure@56@@Z
?seed_reply@IGateClient_Stub@server@mobile@@UEAAXPEAVRpcController@protobuf@google@@PEBVSessionSeed@23@PEAVVoid@23@PEAVClosure@56@@Z
?seed_request@IGateService@server@mobile@@UEAAXPEAVRpcController@protobuf@google@@PEBVVoid@23@PEAV723@PEAVClosure@56@@Z
?seed_request@IGateService_Stub@server@mobile@@UEAAXPEAVRpcController@protobuf@google@@PEBVVoid@23@PEAV723@PEAVClosure@56@@Z
?self_entity_message@IGameService@server@mobile@@UEAAXPEAVRpcController@protobuf@google@@PEBVSelfMessage@23@PEAVVoid@23@PEAVClosure@56@@Z
?self_entity_message@IGameService_Stub@server@mobile@@UEAAXPEAVRpcController@protobuf@google@@PEBVSelfMessage@23@PEAVVoid@23@PEAVClosure@56@@Z
?self_soul_message@IGameService@server@mobile@@UEAAXPEAVRpcController@protobuf@google@@PEBVSelfMessage@23@PEAVVoid@23@PEAVClosure@56@@Z
?self_soul_message@IGameService_Stub@server@mobile@@UEAAXPEAVRpcController@protobuf@google@@PEBVSelfMessage@23@PEAVVoid@23@PEAVClosure@56@@Z
?self_soul_message@IGateService@server@mobile@@UEAAXPEAVRpcController@protobuf@google@@PEBVSelfMessage@23@PEAVVoid@23@PEAVClosure@56@@Z
?self_soul_message@IGateService_Stub@server@mobile@@UEAAXPEAVRpcController@protobuf@google@@PEBVSelfMessage@23@PEAVVoid@23@PEAVClosure@56@@Z
?send_gameserver_info@IGameManagerClient@server@mobile@@UEAAXPEAVRpcController@protobuf@google@@PEBVGameServerInfos@23@PEAVVoid@23@PEAVClosure@56@@Z
?send_gameserver_info@IGameManagerClient_Stub@server@mobile@@UEAAXPEAVRpcController@protobuf@google@@PEBVGameServerInfos@23@PEAVVoid@23@PEAVClosure@56@@Z
?send_service_info@IGameClient@server@mobile@@UEAAXPEAVRpcController@protobuf@google@@PEBVServiceInfos@23@PEAVVoid@23@PEAVClosure@56@@Z
?send_service_info@IGameClient_Stub@server@mobile@@UEAAXPEAVRpcController@protobuf@google@@PEBVServiceInfos@23@PEAVVoid@23@PEAVClosure@56@@Z
?seq_key@DeleteDocRequest@server@mobile@@QEBAAEBV?$basic_string@DU?$char_traits@D@std@@V?$allocator@D@2@@std@@XZ
?seq_key@FindAndModifyDocRequest@server@mobile@@QEBAAEBV?$basic_string@DU?$char_traits@D@std@@V?$allocator@D@2@@std@@XZ
?seq_key@FindDocRequest@server@mobile@@QEBAAEBV?$basic_string@DU?$char_traits@D@std@@V?$allocator@D@2@@std@@XZ
?seq_key@InsertDocRequest@server@mobile@@QEBAAEBV?$basic_string@DU?$char_traits@D@std@@V?$allocator@D@2@@std@@XZ
?seq_key@UpdateDocRequest@server@mobile@@QEBAAEBV?$basic_string@DU?$char_traits@D@std@@V?$allocator@D@2@@std@@XZ
?seqflag@DeleteDocRequest@server@mobile@@QEBA_NXZ
?seqflag@FindAndModifyDocRequest@server@mobile@@QEBA_NXZ
?seqflag@FindDocRequest@server@mobile@@QEBA_NXZ
?seqflag@InsertDocRequest@server@mobile@@QEBA_NXZ
?seqflag@UpdateDocRequest@server@mobile@@QEBA_NXZ
?server@ClientBindMsg@0mobile@@QEBAAEBVServerInfo@02@XZ
?server_ctrl@IGameManager@server@mobile@@UEAAXPEAVRpcController@protobuf@google@@PEBVCtrlType@23@PEAVVoid@23@PEAVClosure@56@@Z
?server_ctrl@IGameManagerClient@server@mobile@@UEAAXPEAVRpcController@protobuf@google@@PEBVCtrlType@23@PEAVVoid@23@PEAVClosure@56@@Z
?server_ctrl@IGameManagerClient_Stub@server@mobile@@UEAAXPEAVRpcController@protobuf@google@@PEBVCtrlType@23@PEAVVoid@23@PEAVClosure@56@@Z
?server_ctrl@IGameManager_Stub@server@mobile@@UEAAXPEAVRpcController@protobuf@google@@PEBVCtrlType@23@PEAVVoid@23@PEAVClosure@56@@Z
?server_method@IGameManager@server@mobile@@UEAAXPEAVRpcController@protobuf@google@@PEBVServerMethod@23@PEAVVoid@23@PEAVClosure@56@@Z
?server_method@IGameManagerClient@server@mobile@@UEAAXPEAVRpcController@protobuf@google@@PEBVServerMethod@23@PEAVVoid@23@PEAVClosure@56@@Z
?server_method@IGameManagerClient_Stub@server@mobile@@UEAAXPEAVRpcController@protobuf@google@@PEBVServerMethod@23@PEAVVoid@23@PEAVClosure@56@@Z
?server_method@IGameManager_Stub@server@mobile@@UEAAXPEAVRpcController@protobuf@google@@PEBVServerMethod@23@PEAVVoid@23@PEAVClosure@56@@Z
?server_type@ServerMethod@server@mobile@@QEBAHXZ
?service_info@CustomServiceMsg@server@mobile@@QEBAAEBVCustomServiceInfo@23@XZ
?service_message@IGameClient@server@mobile@@UEAAXPEAVRpcController@protobuf@google@@PEBVServiceMessage@23@PEAVVoid@23@PEAVClosure@56@@Z
?service_message@IGameClient_Stub@server@mobile@@UEAAXPEAVRpcController@protobuf@google@@PEBVServiceMessage@23@PEAVVoid@23@PEAVClosure@56@@Z
?service_message@IGameService@server@mobile@@UEAAXPEAVRpcController@protobuf@google@@PEBVServiceMessage@23@PEAVVoid@23@PEAVClosure@56@@Z
?service_message@IGameService_Stub@server@mobile@@UEAAXPEAVRpcController@protobuf@google@@PEBVServiceMessage@23@PEAVVoid@23@PEAVClosure@56@@Z
?service_message@IGateService@server@mobile@@UEAAXPEAVRpcController@protobuf@google@@PEBVServiceMessage@23@PEAVVoid@23@PEAVClosure@56@@Z
?service_message@IGateService_Stub@server@mobile@@UEAAXPEAVRpcController@protobuf@google@@PEBVServiceMessage@23@PEAVVoid@23@PEAVClosure@56@@Z
?service_name@CustomServiceInfo@server@mobile@@QEBAAEBV?$basic_string@DU?$char_traits@D@std@@V?$allocator@D@2@@std@@XZ
?services@ServiceInfos@server@mobile@@QEBAAEBV?$RepeatedPtrField@VServiceInfo@server@mobile@@@protobuf@google@@XZ
?services@ServiceInfos@server@mobile@@QEBAAEBVServiceInfo@23@H@Z
?services_size@ServiceInfos@server@mobile@@QEBAHXZ
?session_key@IGateService@server@mobile@@UEAAXPEAVRpcController@protobuf@google@@PEBVEncryptString@23@PEAVVoid@23@PEAVClosure@56@@Z
?session_key@IGateService_Stub@server@mobile@@UEAAXPEAVRpcController@protobuf@google@@PEBVEncryptString@23@PEAVVoid@23@PEAVClosure@56@@Z
?session_key@SessionKey@server@mobile@@QEBAAEBV?$basic_string@DU?$char_traits@D@std@@V?$allocator@D@2@@std@@XZ
?session_key_ok@IGateClient@server@mobile@@UEAAXPEAVRpcController@protobuf@google@@PEBVVoid@23@PEAV723@PEAVClosure@56@@Z
?session_key_ok@IGateClient_Stub@server@mobile@@UEAAXPEAVRpcController@protobuf@google@@PEBVVoid@23@PEAV723@PEAVClosure@56@@Z
?sessionid@ClientInfo@server@mobile@@QEBAAEBV?$basic_string@DU?$char_traits@D@std@@V?$allocator@D@2@@std@@XZ
?set_active_stream_str@ActiveCompress@server@mobile@@QEAAXAEBV?$basic_string@DU?$char_traits@D@std@@V?$allocator@D@2@@std@@@Z
?set_active_stream_str@ActiveCompress@server@mobile@@QEAAXPEBD@Z
?set_active_stream_str@ActiveCompress@server@mobile@@QEAAXPEBX_K@Z
?set_allocated_active_stream_str@ActiveCompress@server@mobile@@QEAAXPEAV?$basic_string@DU?$char_traits@D@std@@V?$allocator@D@2@@std@@@Z
?set_allocated_args@CallDBRequest@server@mobile@@QEAAXPEAV?$basic_string@DU?$char_traits@D@std@@V?$allocator@D@2@@std@@@Z
?set_allocated_args@CallDBResponse@server@mobile@@QEAAXPEAV?$basic_string@DU?$char_traits@D@std@@V?$allocator@D@2@@std@@@Z
?set_allocated_args@RedisExecRequest@server@mobile@@QEAAXPEAV?$basic_string@DU?$char_traits@D@std@@V?$allocator@D@2@@std@@@Z
?set_allocated_args@RunProcedureRequest@server@mobile@@QEAAXPEAV?$basic_string@DU?$char_traits@D@std@@V?$allocator@D@2@@std@@@Z
?set_allocated_avatar_mailbox@SoulBindMsg@server@mobile@@QEAAXPEAVEntityMailbox@23@@Z
?set_allocated_clientid@ClientInfo@server@mobile@@QEAAXPEAV?$basic_string@DU?$char_traits@D@std@@V?$allocator@D@2@@std@@@Z
?set_allocated_clientid@ForwardMessageHeader@server@mobile@@QEAAXPEAV?$basic_string@DU?$char_traits@D@std@@V?$allocator@D@2@@std@@@Z
?set_allocated_clientinfo@ClientBindMsg@server@mobile@@QEAAXPEAVClientInfo@23@@Z
?set_allocated_clientinfo@EntityInfoHeader@server@mobile@@QEAAXPEAVClientInfo@23@@Z
?set_allocated_clientinfo@GateMailbox@server@mobile@@QEAAXPEAVClientInfo@23@@Z
?set_allocated_clientinfo@GateReturnVal@server@mobile@@QEAAXPEAVClientInfo@23@@Z
?set_allocated_clientinfo@SoulBindMsg@server@mobile@@QEAAXPEAVClientInfo@23@@Z
?set_allocated_clientinfo@SoulUnbindMsg@server@mobile@@QEAAXPEAVClientInfo@23@@Z
?set_allocated_clientinfocache@RealEntityCreateInfo@server@mobile@@QEAAXPEAV?$basic_string@DU?$char_traits@D@std@@V?$allocator@D@2@@std@@@Z
?set_allocated_cmcc@SoulBindMsg@server@mobile@@QEAAXPEAV?$basic_string@DU?$char_traits@D@std@@V?$allocator@D@2@@std@@@Z
?set_allocated_collection@CountDocRequest@server@mobile@@QEAAXPEAV?$basic_string@DU?$char_traits@D@std@@V?$allocator@D@2@@std@@@Z
?set_allocated_collection@CreateCollectionRequest@server@mobile@@QEAAXPEAV?$basic_string@DU?$char_traits@D@std@@V?$allocator@D@2@@std@@@Z
?set_allocated_collection@DeleteDocRequest@server@mobile@@QEAAXPEAV?$basic_string@DU?$char_traits@D@std@@V?$allocator@D@2@@std@@@Z
?set_allocated_collection@FindAndModifyDocRequest@server@mobile@@QEAAXPEAV?$basic_string@DU?$char_traits@D@std@@V?$allocator@D@2@@std@@@Z
?set_allocated_collection@FindDocRequest@server@mobile@@QEAAXPEAV?$basic_string@DU?$char_traits@D@std@@V?$allocator@D@2@@std@@@Z
?set_allocated_collection@InsertDocRequest@server@mobile@@QEAAXPEAV?$basic_string@DU?$char_traits@D@std@@V?$allocator@D@2@@std@@@Z
?set_allocated_collection@OperIndexRequest@server@mobile@@QEAAXPEAV?$basic_string@DU?$char_traits@D@std@@V?$allocator@D@2@@std@@@Z
?set_allocated_collection@UpdateDocRequest@server@mobile@@QEAAXPEAV?$basic_string@DU?$char_traits@D@std@@V?$allocator@D@2@@std@@@Z
?set_allocated_content@RealEntityCreateInfo@server@mobile@@QEAAXPEAV?$basic_string@DU?$char_traits@D@std@@V?$allocator@D@2@@std@@@Z
?set_allocated_ctcc@SoulBindMsg@server@mobile@@QEAAXPEAV?$basic_string@DU?$char_traits@D@std@@V?$allocator@D@2@@std@@@Z
?set_allocated_cucc@SoulBindMsg@server@mobile@@QEAAXPEAV?$basic_string@DU?$char_traits@D@std@@V?$allocator@D@2@@std@@@Z
?set_allocated_db@CountDocRequest@server@mobile@@QEAAXPEAV?$basic_string@DU?$char_traits@D@std@@V?$allocator@D@2@@std@@@Z
?set_allocated_db@CreateCollectionRequest@server@mobile@@QEAAXPEAV?$basic_string@DU?$char_traits@D@std@@V?$allocator@D@2@@std@@@Z
?set_allocated_db@DeleteDocRequest@server@mobile@@QEAAXPEAV?$basic_string@DU?$char_traits@D@std@@V?$allocator@D@2@@std@@@Z
?set_allocated_db@FindAndModifyDocRequest@server@mobile@@QEAAXPEAV?$basic_string@DU?$char_traits@D@std@@V?$allocator@D@2@@std@@@Z
?set_allocated_db@FindDocRequest@server@mobile@@QEAAXPEAV?$basic_string@DU?$char_traits@D@std@@V?$allocator@D@2@@std@@@Z
?set_allocated_db@InsertDocRequest@server@mobile@@QEAAXPEAV?$basic_string@DU?$char_traits@D@std@@V?$allocator@D@2@@std@@@Z
?set_allocated_db@OperIndexRequest@server@mobile@@QEAAXPEAV?$basic_string@DU?$char_traits@D@std@@V?$allocator@D@2@@std@@@Z
?set_allocated_db@RunProcedureRequest@server@mobile@@QEAAXPEAV?$basic_string@DU?$char_traits@D@std@@V?$allocator@D@2@@std@@@Z
?set_allocated_db@UpdateDocRequest@server@mobile@@QEAAXPEAV?$basic_string@DU?$char_traits@D@std@@V?$allocator@D@2@@std@@@Z
?set_allocated_db_name@DbServerInfo@server@mobile@@QEAAXPEAV?$basic_string@DU?$char_traits@D@std@@V?$allocator@D@2@@std@@@Z
?set_allocated_desc@OperIndexRequest@server@mobile@@QEAAXPEAV?$basic_string@DU?$char_traits@D@std@@V?$allocator@D@2@@std@@@Z
?set_allocated_doc@FindAndModifyDocReply@server@mobile@@QEAAXPEAV?$basic_string@DU?$char_traits@D@std@@V?$allocator@D@2@@std@@@Z
?set_allocated_doc@InsertDocRequest@server@mobile@@QEAAXPEAV?$basic_string@DU?$char_traits@D@std@@V?$allocator@D@2@@std@@@Z
?set_allocated_doc@RunProcedureReply@server@mobile@@QEAAXPEAV?$basic_string@DU?$char_traits@D@std@@V?$allocator@D@2@@std@@@Z
?set_allocated_doc@UpdateDocRequest@server@mobile@@QEAAXPEAV?$basic_string@DU?$char_traits@D@std@@V?$allocator@D@2@@std@@@Z
?set_allocated_dst_server@EntityInfoHeader@server@mobile@@QEAAXPEAVServerInfo@23@@Z
?set_allocated_dst_srv@RealEntityCreateInfo@server@mobile@@QEAAXPEAVServerInfo@23@@Z
?set_allocated_dstmb@ForwardMessageHeader@server@mobile@@QEAAXPEAVEntityMailbox@23@@Z
?set_allocated_encryptstr@EncryptString@server@mobile@@QEAAXPEAV?$basic_string@DU?$char_traits@D@std@@V?$allocator@D@2@@std@@@Z
?set_allocated_entity_uniq_name@GlobalEntityRegMsg@server@mobile@@QEAAXPEAV?$basic_string@DU?$char_traits@D@std@@V?$allocator@D@2@@std@@@Z
?set_allocated_entityid@ClientBindMsg@server@mobile@@QEAAXPEAV?$basic_string@DU?$char_traits@D@std@@V?$allocator@D@2@@std@@@Z
?set_allocated_entityid@GateMailbox@server@mobile@@QEAAXPEAV?$basic_string@DU?$char_traits@D@std@@V?$allocator@D@2@@std@@@Z
?set_allocated_error_msg@Gate2GameReturnVal@server@mobile@@QEAAXPEAV?$basic_string@DU?$char_traits@D@std@@V?$allocator@D@2@@std@@@Z
?set_allocated_error_msg@GmReturnVal@server@mobile@@QEAAXPEAV?$basic_string@DU?$char_traits@D@std@@V?$allocator@D@2@@std@@@Z
?set_allocated_fields@FindAndModifyDocRequest@server@mobile@@QEAAXPEAV?$basic_string@DU?$char_traits@D@std@@V?$allocator@D@2@@std@@@Z
?set_allocated_fields@FindDocRequest@server@mobile@@QEAAXPEAV?$basic_string@DU?$char_traits@D@std@@V?$allocator@D@2@@std@@@Z
?set_allocated_gateid@ClientInfo@server@mobile@@QEAAXPEAV?$basic_string@DU?$char_traits@D@std@@V?$allocator@D@2@@std@@@Z
?set_allocated_gateid@GateInfo@server@mobile@@QEAAXPEAV?$basic_string@DU?$char_traits@D@std@@V?$allocator@D@2@@std@@@Z
?set_allocated_hint@FindDocRequest@server@mobile@@QEAAXPEAV?$basic_string@DU?$char_traits@D@std@@V?$allocator@D@2@@std@@@Z
?set_allocated_id@CustomServiceInfo@server@mobile@@QEAAXPEAV?$basic_string@DU?$char_traits@D@std@@V?$allocator@D@2@@std@@@Z
?set_allocated_insert_id@InsertDocReply@server@mobile@@QEAAXPEAV?$basic_string@DU?$char_traits@D@std@@V?$allocator@D@2@@std@@@Z
?set_allocated_ip@ClientInfo@server@mobile@@QEAAXPEAV?$basic_string@DU?$char_traits@D@std@@V?$allocator@D@2@@std@@@Z
?set_allocated_ip@MessageIp@server@mobile@@QEAAXPEAV?$basic_string@DU?$char_traits@D@std@@V?$allocator@D@2@@std@@@Z
?set_allocated_key@FilterDataObj@server@mobile@@QEAAXPEAV?$basic_string@DU?$char_traits@D@std@@V?$allocator@D@2@@std@@@Z
?set_allocated_key@GlobalData@server@mobile@@QEAAXPEAV?$basic_string@DU?$char_traits@D@std@@V?$allocator@D@2@@std@@@Z
?set_allocated_kwargs@RedisExecRequest@server@mobile@@QEAAXPEAV?$basic_string@DU?$char_traits@D@std@@V?$allocator@D@2@@std@@@Z
?set_allocated_kwargs@RunProcedureRequest@server@mobile@@QEAAXPEAV?$basic_string@DU?$char_traits@D@std@@V?$allocator@D@2@@std@@@Z
?set_allocated_mailbox@GlobalEntityRegMsg@server@mobile@@QEAAXPEAVEntityMailbox@23@@Z
?set_allocated_md5_idx@RegistMd5IndexMsg@server@mobile@@QEAAXPEAVMd5OrIndex@23@@Z
?set_allocated_message@GlobalMessage@server@mobile@@QEAAXPEAV?$basic_string@DU?$char_traits@D@std@@V?$allocator@D@2@@std@@@Z
?set_allocated_method@CallDBRequest@server@mobile@@QEAAXPEAV?$basic_string@DU?$char_traits@D@std@@V?$allocator@D@2@@std@@@Z
?set_allocated_method@CustomServiceMsg@server@mobile@@QEAAXPEAV?$basic_string@DU?$char_traits@D@std@@V?$allocator@D@2@@std@@@Z
?set_allocated_method@GateMessage@server@mobile@@QEAAXPEAVMd5OrIndex@23@@Z
?set_allocated_method@ServerMethod@server@mobile@@QEAAXPEAV?$basic_string@DU?$char_traits@D@std@@V?$allocator@D@2@@std@@@Z
?set_allocated_operations@CreateCollectionRequest@server@mobile@@QEAAXPEAV?$basic_string@DU?$char_traits@D@std@@V?$allocator@D@2@@std@@@Z
?set_allocated_parameters@CustomServiceMsg@server@mobile@@QEAAXPEAV?$basic_string@DU?$char_traits@D@std@@V?$allocator@D@2@@std@@@Z
?set_allocated_parameters@GateMessage@server@mobile@@QEAAXPEAV?$basic_string@DU?$char_traits@D@std@@V?$allocator@D@2@@std@@@Z
?set_allocated_params@ServerMethod@server@mobile@@QEAAXPEAV?$basic_string@DU?$char_traits@D@std@@V?$allocator@D@2@@std@@@Z
?set_allocated_pre_transfer_entityid@RealEntityCreateInfo@server@mobile@@QEAAXPEAV?$basic_string@DU?$char_traits@D@std@@V?$allocator@D@2@@std@@@Z
?set_allocated_proc@RunProcedureRequest@server@mobile@@QEAAXPEAV?$basic_string@DU?$char_traits@D@std@@V?$allocator@D@2@@std@@@Z
?set_allocated_query@CountDocRequest@server@mobile@@QEAAXPEAV?$basic_string@DU?$char_traits@D@std@@V?$allocator@D@2@@std@@@Z
?set_allocated_query@DeleteDocRequest@server@mobile@@QEAAXPEAV?$basic_string@DU?$char_traits@D@std@@V?$allocator@D@2@@std@@@Z
?set_allocated_query@FindAndModifyDocRequest@server@mobile@@QEAAXPEAV?$basic_string@DU?$char_traits@D@std@@V?$allocator@D@2@@std@@@Z
?set_allocated_query@FindDocRequest@server@mobile@@QEAAXPEAV?$basic_string@DU?$char_traits@D@std@@V?$allocator@D@2@@std@@@Z
?set_allocated_query@OperIndexRequest@server@mobile@@QEAAXPEAV?$basic_string@DU?$char_traits@D@std@@V?$allocator@D@2@@std@@@Z
?set_allocated_query@RedisExecRequest@server@mobile@@QEAAXPEAV?$basic_string@DU?$char_traits@D@std@@V?$allocator@D@2@@std@@@Z
?set_allocated_query@RedisMultiExecRequest@server@mobile@@QEAAXPEAV?$basic_string@DU?$char_traits@D@std@@V?$allocator@D@2@@std@@@Z
?set_allocated_query@RedisPiplineExecRequest@server@mobile@@QEAAXPEAV?$basic_string@DU?$char_traits@D@std@@V?$allocator@D@2@@std@@@Z
?set_allocated_query@UpdateDocRequest@server@mobile@@QEAAXPEAV?$basic_string@DU?$char_traits@D@std@@V?$allocator@D@2@@std@@@Z
?set_allocated_random_padding_header@SessionKey@server@mobile@@QEAAXPEAV?$basic_string@DU?$char_traits@D@std@@V?$allocator@D@2@@std@@@Z
?set_allocated_random_padding_tail@SessionKey@server@mobile@@QEAAXPEAV?$basic_string@DU?$char_traits@D@std@@V?$allocator@D@2@@std@@@Z
?set_allocated_real_class_type@RealEntityCreateInfo@server@mobile@@QEAAXPEAV?$basic_string@DU?$char_traits@D@std@@V?$allocator@D@2@@std@@@Z
?set_allocated_real_entityid@RealEntityCreateInfo@server@mobile@@QEAAXPEAV?$basic_string@DU?$char_traits@D@std@@V?$allocator@D@2@@std@@@Z
?set_allocated_reply_docs@RedisExecResponse@server@mobile@@QEAAXPEAV?$basic_string@DU?$char_traits@D@std@@V?$allocator@D@2@@std@@@Z
?set_allocated_reply_docs@RedisMultiExecResponse@server@mobile@@QEAAXPEAV?$basic_string@DU?$char_traits@D@std@@V?$allocator@D@2@@std@@@Z
?set_allocated_reply_docs@RedisPiplineExecResponse@server@mobile@@QEAAXPEAV?$basic_string@DU?$char_traits@D@std@@V?$allocator@D@2@@std@@@Z
?set_allocated_return_val@Gate2GameReturnVal@server@mobile@@QEAAXPEAV?$basic_string@DU?$char_traits@D@std@@V?$allocator@D@2@@std@@@Z
?set_allocated_return_val@GmReturnVal@server@mobile@@QEAAXPEAV?$basic_string@DU?$char_traits@D@std@@V?$allocator@D@2@@std@@@Z
?set_allocated_routes@CustomServiceMsg@server@mobile@@QEAAXPEAV?$basic_string@DU?$char_traits@D@std@@V?$allocator@D@2@@std@@@Z
?set_allocated_routes@FilterUserDatas@server@mobile@@QEAAXPEAV?$basic_string@DU?$char_traits@D@std@@V?$allocator@D@2@@std@@@Z
?set_allocated_routes@RegistMd5IndexMsg@server@mobile@@QEAAXPEAV?$basic_string@DU?$char_traits@D@std@@V?$allocator@D@2@@std@@@Z
?set_allocated_script_content@Script@server@mobile@@QEAAXPEAV?$basic_string@DU?$char_traits@D@std@@V?$allocator@D@2@@std@@@Z
?set_allocated_seq_key@DeleteDocRequest@server@mobile@@QEAAXPEAV?$basic_string@DU?$char_traits@D@std@@V?$allocator@D@2@@std@@@Z
?set_allocated_seq_key@FindAndModifyDocRequest@server@mobile@@QEAAXPEAV?$basic_string@DU?$char_traits@D@std@@V?$allocator@D@2@@std@@@Z
?set_allocated_seq_key@FindDocRequest@server@mobile@@QEAAXPEAV?$basic_string@DU?$char_traits@D@std@@V?$allocator@D@2@@std@@@Z
?set_allocated_seq_key@InsertDocRequest@server@mobile@@QEAAXPEAV?$basic_string@DU?$char_traits@D@std@@V?$allocator@D@2@@std@@@Z
?set_allocated_seq_key@UpdateDocRequest@server@mobile@@QEAAXPEAV?$basic_string@DU?$char_traits@D@std@@V?$allocator@D@2@@std@@@Z
?set_allocated_server@ClientBindMsg@server@mobile@@QEAAXPEAVServerInfo@23@@Z
?set_allocated_service_info@CustomServiceMsg@server@mobile@@QEAAXPEAVCustomServiceInfo@23@@Z
?set_allocated_service_name@CustomServiceInfo@server@mobile@@QEAAXPEAV?$basic_string@DU?$char_traits@D@std@@V?$allocator@D@2@@std@@@Z
?set_allocated_session_key@SessionKey@server@mobile@@QEAAXPEAV?$basic_string@DU?$char_traits@D@std@@V?$allocator@D@2@@std@@@Z
?set_allocated_sessionid@ClientInfo@server@mobile@@QEAAXPEAV?$basic_string@DU?$char_traits@D@std@@V?$allocator@D@2@@std@@@Z
?set_allocated_skip@FindDocRequest@server@mobile@@QEAAXPEAV?$basic_string@DU?$char_traits@D@std@@V?$allocator@D@2@@std@@@Z
?set_allocated_sort@FindAndModifyDocRequest@server@mobile@@QEAAXPEAV?$basic_string@DU?$char_traits@D@std@@V?$allocator@D@2@@std@@@Z
?set_allocated_sort@FindDocRequest@server@mobile@@QEAAXPEAV?$basic_string@DU?$char_traits@D@std@@V?$allocator@D@2@@std@@@Z
?set_allocated_soul_mailbox@SoulBindMsg@server@mobile@@QEAAXPEAVEntityMailbox@23@@Z
?set_allocated_src_srv@RealEntityCreateInfo@server@mobile@@QEAAXPEAVServerInfo@23@@Z
?set_allocated_srcmb@ForwardMessageHeader@server@mobile@@QEAAXPEAVEntityMailbox@23@@Z
?set_allocated_strvalue@FilterDataObj@server@mobile@@QEAAXPEAV?$basic_string@DU?$char_traits@D@std@@V?$allocator@D@2@@std@@@Z
?set_allocated_update@FindAndModifyDocRequest@server@mobile@@QEAAXPEAV?$basic_string@DU?$char_traits@D@std@@V?$allocator@D@2@@std@@@Z
?set_allocated_value@GlobalData@server@mobile@@QEAAXPEAV?$basic_string@DU?$char_traits@D@std@@V?$allocator@D@2@@std@@@Z
?set_args@CallDBRequest@server@mobile@@QEAAXAEBV?$basic_string@DU?$char_traits@D@std@@V?$allocator@D@2@@std@@@Z
?set_args@CallDBRequest@server@mobile@@QEAAXPEBD@Z
?set_args@CallDBRequest@server@mobile@@QEAAXPEBX_K@Z
?set_args@CallDBResponse@server@mobile@@QEAAXAEBV?$basic_string@DU?$char_traits@D@std@@V?$allocator@D@2@@std@@@Z
?set_args@CallDBResponse@server@mobile@@QEAAXPEBD@Z
?set_args@CallDBResponse@server@mobile@@QEAAXPEBX_K@Z
?set_args@RedisExecRequest@server@mobile@@QEAAXAEBV?$basic_string@DU?$char_traits@D@std@@V?$allocator@D@2@@std@@@Z
?set_args@RedisExecRequest@server@mobile@@QEAAXPEBD@Z
?set_args@RedisExecRequest@server@mobile@@QEAAXPEBX_K@Z
?set_args@RunProcedureRequest@server@mobile@@QEAAXAEBV?$basic_string@DU?$char_traits@D@std@@V?$allocator@D@2@@std@@@Z
?set_args@RunProcedureRequest@server@mobile@@QEAAXPEBD@Z
?set_args@RunProcedureRequest@server@mobile@@QEAAXPEBX_K@Z
?set_async_timer@@YAX_N@Z
?set_begin@LocalIdMessage@server@mobile@@QEAAXH@Z
?set_bind_soul_info@IGateClient@server@mobile@@UEAAXPEAVRpcController@protobuf@google@@PEBVBindSoulInfo@23@PEAVVoid@23@PEAVClosure@56@@Z
?set_bind_soul_info@IGateClient_Stub@server@mobile@@UEAAXPEAVRpcController@protobuf@google@@PEBVBindSoulInfo@23@PEAVVoid@23@PEAVClosure@56@@Z
?set_callback_id@CallDBRequest@server@mobile@@QEAAXH@Z
?set_callback_id@CallDBResponse@server@mobile@@QEAAXH@Z
?set_callback_id@CallbackId@server@mobile@@QEAAXH@Z
?set_callback_id@CountDocReply@server@mobile@@QEAAXH@Z
?set_callback_id@CountDocRequest@server@mobile@@QEAAXH@Z
?set_callback_id@CreateCollectionReply@server@mobile@@QEAAXH@Z
?set_callback_id@CreateCollectionRequest@server@mobile@@QEAAXH@Z
?set_callback_id@DeleteDocReply@server@mobile@@QEAAXH@Z
?set_callback_id@DeleteDocRequest@server@mobile@@QEAAXH@Z
?set_callback_id@EntityInfoHeader@server@mobile@@QEAAXH@Z
?set_callback_id@FindAndModifyDocReply@server@mobile@@QEAAXH@Z
?set_callback_id@FindAndModifyDocRequest@server@mobile@@QEAAXH@Z
?set_callback_id@FindDocReply@server@mobile@@QEAAXH@Z
?set_callback_id@FindDocRequest@server@mobile@@QEAAXH@Z
?set_callback_id@ForwardMessageHeader@server@mobile@@QEAAXH@Z
?set_callback_id@Gate2GameReturnVal@server@mobile@@QEAAXH@Z
?set_callback_id@GlobalEntityRegMsg@server@mobile@@QEAAXH@Z
?set_callback_id@GmReturnVal@server@mobile@@QEAAXH@Z
?set_callback_id@InsertDocReply@server@mobile@@QEAAXH@Z
?set_callback_id@InsertDocRequest@server@mobile@@QEAAXH@Z
?set_callback_id@OperIndexReply@server@mobile@@QEAAXH@Z
?set_callback_id@OperIndexRequest@server@mobile@@QEAAXH@Z
?set_callback_id@RedisExecRequest@server@mobile@@QEAAXH@Z
?set_callback_id@RedisExecResponse@server@mobile@@QEAAXH@Z
?set_callback_id@RedisMultiExecRequest@server@mobile@@QEAAXH@Z
?set_callback_id@RedisMultiExecResponse@server@mobile@@QEAAXH@Z
?set_callback_id@RedisPiplineExecRequest@server@mobile@@QEAAXH@Z
?set_callback_id@RedisPiplineExecResponse@server@mobile@@QEAAXH@Z
?set_callback_id@RunProcedureReply@server@mobile@@QEAAXH@Z
?set_callback_id@RunProcedureRequest@server@mobile@@QEAAXH@Z
?set_callback_id@SoulBindMsg@server@mobile@@QEAAXH@Z
?set_callback_id@SoulUnbindMsg@server@mobile@@QEAAXH@Z
?set_callback_id@UpdateDocReply@server@mobile@@QEAAXH@Z
?set_callback_id@UpdateDocRequest@server@mobile@@QEAAXH@Z
?set_clientid@ClientInfo@server@mobile@@QEAAXAEBV?$basic_string@DU?$char_traits@D@std@@V?$allocator@D@2@@std@@@Z
?set_clientid@ClientInfo@server@mobile@@QEAAXPEBD@Z
?set_clientid@ClientInfo@server@mobile@@QEAAXPEBX_K@Z
?set_clientid@ForwardMessageHeader@server@mobile@@QEAAXAEBV?$basic_string@DU?$char_traits@D@std@@V?$allocator@D@2@@std@@@Z
?set_clientid@ForwardMessageHeader@server@mobile@@QEAAXPEBD@Z
?set_clientid@ForwardMessageHeader@server@mobile@@QEAAXPEBX_K@Z
?set_clientinfocache@RealEntityCreateInfo@server@mobile@@QEAAXAEBV?$basic_string@DU?$char_traits@D@std@@V?$allocator@D@2@@std@@@Z
?set_clientinfocache@RealEntityCreateInfo@server@mobile@@QEAAXPEBD@Z
?set_clientinfocache@RealEntityCreateInfo@server@mobile@@QEAAXPEBX_K@Z
?set_cmcc@SoulBindMsg@server@mobile@@QEAAXAEBV?$basic_string@DU?$char_traits@D@std@@V?$allocator@D@2@@std@@@Z
?set_cmcc@SoulBindMsg@server@mobile@@QEAAXPEBD@Z
?set_cmcc@SoulBindMsg@server@mobile@@QEAAXPEBX_K@Z
?set_collection@CountDocRequest@server@mobile@@QEAAXAEBV?$basic_string@DU?$char_traits@D@std@@V?$allocator@D@2@@std@@@Z
?set_collection@CountDocRequest@server@mobile@@QEAAXPEBD@Z
?set_collection@CountDocRequest@server@mobile@@QEAAXPEBX_K@Z
?set_collection@CreateCollectionRequest@server@mobile@@QEAAXAEBV?$basic_string@DU?$char_traits@D@std@@V?$allocator@D@2@@std@@@Z
?set_collection@CreateCollectionRequest@server@mobile@@QEAAXPEBD@Z
?set_collection@CreateCollectionRequest@server@mobile@@QEAAXPEBX_K@Z
?set_collection@DeleteDocRequest@server@mobile@@QEAAXAEBV?$basic_string@DU?$char_traits@D@std@@V?$allocator@D@2@@std@@@Z
?set_collection@DeleteDocRequest@server@mobile@@QEAAXPEBD@Z
?set_collection@DeleteDocRequest@server@mobile@@QEAAXPEBX_K@Z
?set_collection@FindAndModifyDocRequest@server@mobile@@QEAAXAEBV?$basic_string@DU?$char_traits@D@std@@V?$allocator@D@2@@std@@@Z
?set_collection@FindAndModifyDocRequest@server@mobile@@QEAAXPEBD@Z
?set_collection@FindAndModifyDocRequest@server@mobile@@QEAAXPEBX_K@Z
?set_collection@FindDocRequest@server@mobile@@QEAAXAEBV?$basic_string@DU?$char_traits@D@std@@V?$allocator@D@2@@std@@@Z
?set_collection@FindDocRequest@server@mobile@@QEAAXPEBD@Z
?set_collection@FindDocRequest@server@mobile@@QEAAXPEBX_K@Z
?set_collection@InsertDocRequest@server@mobile@@QEAAXAEBV?$basic_string@DU?$char_traits@D@std@@V?$allocator@D@2@@std@@@Z
?set_collection@InsertDocRequest@server@mobile@@QEAAXPEBD@Z
?set_collection@InsertDocRequest@server@mobile@@QEAAXPEBX_K@Z
?set_collection@OperIndexRequest@server@mobile@@QEAAXAEBV?$basic_string@DU?$char_traits@D@std@@V?$allocator@D@2@@std@@@Z
?set_collection@OperIndexRequest@server@mobile@@QEAAXPEBD@Z
?set_collection@OperIndexRequest@server@mobile@@QEAAXPEBX_K@Z
?set_collection@UpdateDocRequest@server@mobile@@QEAAXAEBV?$basic_string@DU?$char_traits@D@std@@V?$allocator@D@2@@std@@@Z
?set_collection@UpdateDocRequest@server@mobile@@QEAAXPEBD@Z
?set_collection@UpdateDocRequest@server@mobile@@QEAAXPEBX_K@Z
?set_compress_type@service@async@@UEAAXW4compress_type@2@@Z
?set_content@RealEntityCreateInfo@server@mobile@@QEAAXAEBV?$basic_string@DU?$char_traits@D@std@@V?$allocator@D@2@@std@@@Z
?set_content@RealEntityCreateInfo@server@mobile@@QEAAXPEBD@Z
?set_content@RealEntityCreateInfo@server@mobile@@QEAAXPEBX_K@Z
?set_count@CountDocReply@server@mobile@@QEAAXH@Z
?set_create_anywhere@EntityInfoHeader@server@mobile@@QEAAXH@Z
?set_create_from_db@EntityInfoHeader@server@mobile@@QEAAX_N@Z
?set_ctcc@SoulBindMsg@server@mobile@@QEAAXAEBV?$basic_string@DU?$char_traits@D@std@@V?$allocator@D@2@@std@@@Z
?set_ctcc@SoulBindMsg@server@mobile@@QEAAXPEBD@Z
?set_ctcc@SoulBindMsg@server@mobile@@QEAAXPEBX_K@Z
?set_cucc@SoulBindMsg@server@mobile@@QEAAXAEBV?$basic_string@DU?$char_traits@D@std@@V?$allocator@D@2@@std@@@Z
?set_cucc@SoulBindMsg@server@mobile@@QEAAXPEBD@Z
?set_cucc@SoulBindMsg@server@mobile@@QEAAXPEBX_K@Z
?set_db@CountDocRequest@server@mobile@@QEAAXAEBV?$basic_string@DU?$char_traits@D@std@@V?$allocator@D@2@@std@@@Z
?set_db@CountDocRequest@server@mobile@@QEAAXPEBD@Z
?set_db@CountDocRequest@server@mobile@@QEAAXPEBX_K@Z
?set_db@CreateCollectionRequest@server@mobile@@QEAAXAEBV?$basic_string@DU?$char_traits@D@std@@V?$allocator@D@2@@std@@@Z
?set_db@CreateCollectionRequest@server@mobile@@QEAAXPEBD@Z
?set_db@CreateCollectionRequest@server@mobile@@QEAAXPEBX_K@Z
?set_db@DeleteDocRequest@server@mobile@@QEAAXAEBV?$basic_string@DU?$char_traits@D@std@@V?$allocator@D@2@@std@@@Z
?set_db@DeleteDocRequest@server@mobile@@QEAAXPEBD@Z
?set_db@DeleteDocRequest@server@mobile@@QEAAXPEBX_K@Z
?set_db@FindAndModifyDocRequest@server@mobile@@QEAAXAEBV?$basic_string@DU?$char_traits@D@std@@V?$allocator@D@2@@std@@@Z
?set_db@FindAndModifyDocRequest@server@mobile@@QEAAXPEBD@Z
?set_db@FindAndModifyDocRequest@server@mobile@@QEAAXPEBX_K@Z
?set_db@FindDocRequest@server@mobile@@QEAAXAEBV?$basic_string@DU?$char_traits@D@std@@V?$allocator@D@2@@std@@@Z
?set_db@FindDocRequest@server@mobile@@QEAAXPEBD@Z
?set_db@FindDocRequest@server@mobile@@QEAAXPEBX_K@Z
?set_db@InsertDocRequest@server@mobile@@QEAAXAEBV?$basic_string@DU?$char_traits@D@std@@V?$allocator@D@2@@std@@@Z
?set_db@InsertDocRequest@server@mobile@@QEAAXPEBD@Z
?set_db@InsertDocRequest@server@mobile@@QEAAXPEBX_K@Z
?set_db@OperIndexRequest@server@mobile@@QEAAXAEBV?$basic_string@DU?$char_traits@D@std@@V?$allocator@D@2@@std@@@Z
?set_db@OperIndexRequest@server@mobile@@QEAAXPEBD@Z
?set_db@OperIndexRequest@server@mobile@@QEAAXPEBX_K@Z
?set_db@RedisExecRequest@server@mobile@@QEAAXH@Z
?set_db@RedisMultiExecRequest@server@mobile@@QEAAXH@Z
?set_db@RedisPiplineExecRequest@server@mobile@@QEAAXH@Z
?set_db@RunProcedureRequest@server@mobile@@QEAAXAEBV?$basic_string@DU?$char_traits@D@std@@V?$allocator@D@2@@std@@@Z
?set_db@RunProcedureRequest@server@mobile@@QEAAXPEBD@Z
?set_db@RunProcedureRequest@server@mobile@@QEAAXPEBX_K@Z
?set_db@UpdateDocRequest@server@mobile@@QEAAXAEBV?$basic_string@DU?$char_traits@D@std@@V?$allocator@D@2@@std@@@Z
?set_db@UpdateDocRequest@server@mobile@@QEAAXPEBD@Z
?set_db@UpdateDocRequest@server@mobile@@QEAAXPEBX_K@Z
?set_db_name@DbServerInfo@server@mobile@@QEAAXAEBV?$basic_string@DU?$char_traits@D@std@@V?$allocator@D@2@@std@@@Z
?set_db_name@DbServerInfo@server@mobile@@QEAAXPEBD@Z
?set_db_name@DbServerInfo@server@mobile@@QEAAXPEBX_K@Z
?set_delay_enable_compress@service@async@@UEAAXXZ
?set_delay_encrypte_key@service@async@@UEAAXAEBV?$basic_string@DU?$char_traits@D@std@@V?$allocator@D@2@@std@@@Z
?set_desc@OperIndexRequest@server@mobile@@QEAAXAEBV?$basic_string@DU?$char_traits@D@std@@V?$allocator@D@2@@std@@@Z
?set_desc@OperIndexRequest@server@mobile@@QEAAXPEBD@Z
?set_desc@OperIndexRequest@server@mobile@@QEAAXPEBX_K@Z
?set_doc@FindAndModifyDocReply@server@mobile@@QEAAXAEBV?$basic_string@DU?$char_traits@D@std@@V?$allocator@D@2@@std@@@Z
?set_doc@FindAndModifyDocReply@server@mobile@@QEAAXPEBD@Z
?set_doc@FindAndModifyDocReply@server@mobile@@QEAAXPEBX_K@Z
?set_doc@InsertDocRequest@server@mobile@@QEAAXAEBV?$basic_string@DU?$char_traits@D@std@@V?$allocator@D@2@@std@@@Z
?set_doc@InsertDocRequest@server@mobile@@QEAAXPEBD@Z
?set_doc@InsertDocRequest@server@mobile@@QEAAXPEBX_K@Z
?set_doc@RunProcedureReply@server@mobile@@QEAAXAEBV?$basic_string@DU?$char_traits@D@std@@V?$allocator@D@2@@std@@@Z
?set_doc@RunProcedureReply@server@mobile@@QEAAXPEBD@Z
?set_doc@RunProcedureReply@server@mobile@@QEAAXPEBX_K@Z
?set_doc@UpdateDocRequest@server@mobile@@QEAAXAEBV?$basic_string@DU?$char_traits@D@std@@V?$allocator@D@2@@std@@@Z
?set_doc@UpdateDocRequest@server@mobile@@QEAAXPEBD@Z
?set_doc@UpdateDocRequest@server@mobile@@QEAAXPEBX_K@Z
?set_docs@FindDocReply@server@mobile@@QEAAXHAEBV?$basic_string@DU?$char_traits@D@std@@V?$allocator@D@2@@std@@@Z
?set_docs@FindDocReply@server@mobile@@QEAAXHPEBD@Z
?set_docs@FindDocReply@server@mobile@@QEAAXHPEBX_K@Z
?set_encryptstr@EncryptString@server@mobile@@QEAAXAEBV?$basic_string@DU?$char_traits@D@std@@V?$allocator@D@2@@std@@@Z
?set_encryptstr@EncryptString@server@mobile@@QEAAXPEBD@Z
?set_encryptstr@EncryptString@server@mobile@@QEAAXPEBX_K@Z
?set_entity_uniq_name@GlobalEntityRegMsg@server@mobile@@QEAAXAEBV?$basic_string@DU?$char_traits@D@std@@V?$allocator@D@2@@std@@@Z
?set_entity_uniq_name@GlobalEntityRegMsg@server@mobile@@QEAAXPEBD@Z
?set_entity_uniq_name@GlobalEntityRegMsg@server@mobile@@QEAAXPEBX_K@Z
?set_entityid@ClientBindMsg@server@mobile@@QEAAXAEBV?$basic_string@DU?$char_traits@D@std@@V?$allocator@D@2@@std@@@Z
?set_entityid@ClientBindMsg@server@mobile@@QEAAXPEBD@Z
?set_entityid@ClientBindMsg@server@mobile@@QEAAXPEBX_K@Z
?set_entityid@GateMailbox@server@mobile@@QEAAXAEBV?$basic_string@DU?$char_traits@D@std@@V?$allocator@D@2@@std@@@Z
?set_entityid@GateMailbox@server@mobile@@QEAAXPEBD@Z
?set_entityid@GateMailbox@server@mobile@@QEAAXPEBX_K@Z
?set_error_msg@Gate2GameReturnVal@server@mobile@@QEAAXAEBV?$basic_string@DU?$char_traits@D@std@@V?$allocator@D@2@@std@@@Z
?set_error_msg@Gate2GameReturnVal@server@mobile@@QEAAXPEBD@Z
?set_error_msg@Gate2GameReturnVal@server@mobile@@QEAAXPEBX_K@Z
?set_error_msg@GmReturnVal@server@mobile@@QEAAXAEBV?$basic_string@DU?$char_traits@D@std@@V?$allocator@D@2@@std@@@Z
?set_error_msg@GmReturnVal@server@mobile@@QEAAXPEBD@Z
?set_error_msg@GmReturnVal@server@mobile@@QEAAXPEBX_K@Z
?set_fields@FindAndModifyDocRequest@server@mobile@@QEAAXAEBV?$basic_string@DU?$char_traits@D@std@@V?$allocator@D@2@@std@@@Z
?set_fields@FindAndModifyDocRequest@server@mobile@@QEAAXPEBD@Z
?set_fields@FindAndModifyDocRequest@server@mobile@@QEAAXPEBX_K@Z
?set_fields@FindDocRequest@server@mobile@@QEAAXAEBV?$basic_string@DU?$char_traits@D@std@@V?$allocator@D@2@@std@@@Z
?set_fields@FindDocRequest@server@mobile@@QEAAXPEBD@Z
?set_fields@FindDocRequest@server@mobile@@QEAAXPEBX_K@Z
?set_filter_maxsize@@YAX_K@Z
?set_gate_cpp@@YAX_N@Z
?set_gateid@ClientInfo@server@mobile@@QEAAXAEBV?$basic_string@DU?$char_traits@D@std@@V?$allocator@D@2@@std@@@Z
?set_gateid@ClientInfo@server@mobile@@QEAAXPEBD@Z
?set_gateid@ClientInfo@server@mobile@@QEAAXPEBX_K@Z
?set_gateid@GateInfo@server@mobile@@QEAAXAEBV?$basic_string@DU?$char_traits@D@std@@V?$allocator@D@2@@std@@@Z
?set_gateid@GateInfo@server@mobile@@QEAAXPEBD@Z
?set_gateid@GateInfo@server@mobile@@QEAAXPEBX_K@Z
?set_handler@service@async@@UEAAXAEAVobject@api@python@boost@@@Z
?set_has_active_stream_str@ActiveCompress@server@mobile@@AEAAXXZ
?set_has_args@CallDBRequest@server@mobile@@AEAAXXZ
?set_has_args@CallDBResponse@server@mobile@@AEAAXXZ
?set_has_args@RedisExecRequest@server@mobile@@AEAAXXZ
?set_has_args@RunProcedureRequest@server@mobile@@AEAAXXZ
?set_has_avatar_mailbox@SoulBindMsg@server@mobile@@AEAAXXZ
?set_has_begin@LocalIdMessage@server@mobile@@AEAAXXZ
?set_has_callback_id@CallDBRequest@server@mobile@@AEAAXXZ
?set_has_callback_id@CallDBResponse@server@mobile@@AEAAXXZ
?set_has_callback_id@CallbackId@server@mobile@@AEAAXXZ
?set_has_callback_id@CountDocReply@server@mobile@@AEAAXXZ
?set_has_callback_id@CountDocRequest@server@mobile@@AEAAXXZ
?set_has_callback_id@CreateCollectionReply@server@mobile@@AEAAXXZ
?set_has_callback_id@CreateCollectionRequest@server@mobile@@AEAAXXZ
?set_has_callback_id@DeleteDocReply@server@mobile@@AEAAXXZ
?set_has_callback_id@DeleteDocRequest@server@mobile@@AEAAXXZ
?set_has_callback_id@EntityInfoHeader@server@mobile@@AEAAXXZ
?set_has_callback_id@FindAndModifyDocReply@server@mobile@@AEAAXXZ
?set_has_callback_id@FindAndModifyDocRequest@server@mobile@@AEAAXXZ
?set_has_callback_id@FindDocReply@server@mobile@@AEAAXXZ
?set_has_callback_id@FindDocRequest@server@mobile@@AEAAXXZ
?set_has_callback_id@ForwardMessageHeader@server@mobile@@AEAAXXZ
?set_has_callback_id@Gate2GameReturnVal@server@mobile@@AEAAXXZ
?set_has_callback_id@GlobalEntityRegMsg@server@mobile@@AEAAXXZ
?set_has_callback_id@GmReturnVal@server@mobile@@AEAAXXZ
?set_has_callback_id@InsertDocReply@server@mobile@@AEAAXXZ
?set_has_callback_id@InsertDocRequest@server@mobile@@AEAAXXZ
?set_has_callback_id@OperIndexReply@server@mobile@@AEAAXXZ
?set_has_callback_id@OperIndexRequest@server@mobile@@AEAAXXZ
?set_has_callback_id@RedisExecRequest@server@mobile@@AEAAXXZ
?set_has_callback_id@RedisExecResponse@server@mobile@@AEAAXXZ
?set_has_callback_id@RedisMultiExecRequest@server@mobile@@AEAAXXZ
?set_has_callback_id@RedisMultiExecResponse@server@mobile@@AEAAXXZ
?set_has_callback_id@RedisPiplineExecRequest@server@mobile@@AEAAXXZ
?set_has_callback_id@RedisPiplineExecResponse@server@mobile@@AEAAXXZ
?set_has_callback_id@RunProcedureReply@server@mobile@@AEAAXXZ
?set_has_callback_id@RunProcedureRequest@server@mobile@@AEAAXXZ
?set_has_callback_id@SoulBindMsg@server@mobile@@AEAAXXZ
?set_has_callback_id@SoulUnbindMsg@server@mobile@@AEAAXXZ
?set_has_callback_id@UpdateDocReply@server@mobile@@AEAAXXZ
?set_has_callback_id@UpdateDocRequest@server@mobile@@AEAAXXZ
?set_has_clientid@ClientInfo@server@mobile@@AEAAXXZ
?set_has_clientid@ForwardMessageHeader@server@mobile@@AEAAXXZ
?set_has_clientinfo@ClientBindMsg@server@mobile@@AEAAXXZ
?set_has_clientinfo@EntityInfoHeader@server@mobile@@AEAAXXZ
?set_has_clientinfo@GateMailbox@server@mobile@@AEAAXXZ
?set_has_clientinfo@GateReturnVal@server@mobile@@AEAAXXZ
?set_has_clientinfo@SoulBindMsg@server@mobile@@AEAAXXZ
?set_has_clientinfo@SoulUnbindMsg@server@mobile@@AEAAXXZ
?set_has_clientinfocache@RealEntityCreateInfo@server@mobile@@AEAAXXZ
?set_has_cmcc@SoulBindMsg@server@mobile@@AEAAXXZ
?set_has_collection@CountDocRequest@server@mobile@@AEAAXXZ
?set_has_collection@CreateCollectionRequest@server@mobile@@AEAAXXZ
?set_has_collection@DeleteDocRequest@server@mobile@@AEAAXXZ
?set_has_collection@FindAndModifyDocRequest@server@mobile@@AEAAXXZ
?set_has_collection@FindDocRequest@server@mobile@@AEAAXXZ
?set_has_collection@InsertDocRequest@server@mobile@@AEAAXXZ
?set_has_collection@OperIndexRequest@server@mobile@@AEAAXXZ
?set_has_collection@UpdateDocRequest@server@mobile@@AEAAXXZ
?set_has_content@RealEntityCreateInfo@server@mobile@@AEAAXXZ
?set_has_count@CountDocReply@server@mobile@@AEAAXXZ
?set_has_create_anywhere@EntityInfoHeader@server@mobile@@AEAAXXZ
?set_has_create_from_db@EntityInfoHeader@server@mobile@@AEAAXXZ
?set_has_ctcc@SoulBindMsg@server@mobile@@AEAAXXZ
?set_has_cucc@SoulBindMsg@server@mobile@@AEAAXXZ
?set_has_db@CountDocRequest@server@mobile@@AEAAXXZ
?set_has_db@CreateCollectionRequest@server@mobile@@AEAAXXZ
?set_has_db@DeleteDocRequest@server@mobile@@AEAAXXZ
?set_has_db@FindAndModifyDocRequest@server@mobile@@AEAAXXZ
?set_has_db@FindDocRequest@server@mobile@@AEAAXXZ
?set_has_db@InsertDocRequest@server@mobile@@AEAAXXZ
?set_has_db@OperIndexRequest@server@mobile@@AEAAXXZ
?set_has_db@RedisExecRequest@server@mobile@@AEAAXXZ
?set_has_db@RedisMultiExecRequest@server@mobile@@AEAAXXZ
?set_has_db@RedisPiplineExecRequest@server@mobile@@AEAAXXZ
?set_has_db@RunProcedureRequest@server@mobile@@AEAAXXZ
?set_has_db@UpdateDocRequest@server@mobile@@AEAAXXZ
?set_has_db_name@DbServerInfo@server@mobile@@AEAAXXZ
?set_has_desc@OperIndexRequest@server@mobile@@AEAAXXZ
?set_has_doc@FindAndModifyDocReply@server@mobile@@AEAAXXZ
?set_has_doc@InsertDocRequest@server@mobile@@AEAAXXZ
?set_has_doc@RunProcedureReply@server@mobile@@AEAAXXZ
?set_has_doc@UpdateDocRequest@server@mobile@@AEAAXXZ
?set_has_dst_server@EntityInfoHeader@server@mobile@@AEAAXXZ
?set_has_dst_srv@RealEntityCreateInfo@server@mobile@@AEAAXXZ
?set_has_dstmb@ForwardMessageHeader@server@mobile@@AEAAXXZ
?set_has_encryptstr@EncryptString@server@mobile@@AEAAXXZ
?set_has_entity_uniq_name@GlobalEntityRegMsg@server@mobile@@AEAAXXZ
?set_has_entityid@ClientBindMsg@server@mobile@@AEAAXXZ
?set_has_entityid@GateMailbox@server@mobile@@AEAAXXZ
?set_has_error_msg@Gate2GameReturnVal@server@mobile@@AEAAXXZ
?set_has_error_msg@GmReturnVal@server@mobile@@AEAAXXZ
?set_has_fields@FindAndModifyDocRequest@server@mobile@@AEAAXXZ
?set_has_fields@FindDocRequest@server@mobile@@AEAAXXZ
?set_has_gateid@ClientInfo@server@mobile@@AEAAXXZ
?set_has_gateid@GateInfo@server@mobile@@AEAAXXZ
?set_has_hint@FindDocRequest@server@mobile@@AEAAXXZ
?set_has_id@CustomServiceInfo@server@mobile@@AEAAXXZ
?set_has_independent@SoulBindMsg@server@mobile@@AEAAXXZ
?set_has_insert_id@InsertDocReply@server@mobile@@AEAAXXZ
?set_has_intvalue@FilterDataObj@server@mobile@@AEAAXXZ
?set_has_ip@ClientInfo@server@mobile@@AEAAXXZ
?set_has_ip@MessageIp@server@mobile@@AEAAXXZ
?set_has_is_soul@ClientInfo@server@mobile@@AEAAXXZ
?set_has_isp@SessionIsp@server@mobile@@AEAAXXZ
?set_has_key@FilterDataObj@server@mobile@@AEAAXXZ
?set_has_key@GlobalData@server@mobile@@AEAAXXZ
?set_has_kwargs@RedisExecRequest@server@mobile@@AEAAXXZ
?set_has_kwargs@RunProcedureRequest@server@mobile@@AEAAXXZ
?set_has_limit@FindDocRequest@server@mobile@@AEAAXXZ
?set_has_load@GameLoad@server@mobile@@AEAAXXZ
?set_has_localid@RealEntityCreateInfo@server@mobile@@AEAAXXZ
?set_has_mailbox@GlobalEntityRegMsg@server@mobile@@AEAAXXZ
?set_has_md5_idx@RegistMd5IndexMsg@server@mobile@@AEAAXXZ
?set_has_message@GlobalMessage@server@mobile@@AEAAXXZ
?set_has_method@CallDBRequest@server@mobile@@AEAAXXZ
?set_has_method@CustomServiceMsg@server@mobile@@AEAAXXZ
?set_has_method@GateMessage@server@mobile@@AEAAXXZ
?set_has_method@ServerMethod@server@mobile@@AEAAXXZ
?set_has_multi@UpdateDocRequest@server@mobile@@AEAAXXZ
?set_has_new_@FindAndModifyDocRequest@server@mobile@@AEAAXXZ
?set_has_op@CtrlType@server@mobile@@AEAAXXZ
?set_has_operations@CreateCollectionRequest@server@mobile@@AEAAXXZ
?set_has_override@GlobalEntityRegMsg@server@mobile@@AEAAXXZ
?set_has_parameters@CustomServiceMsg@server@mobile@@AEAAXXZ
?set_has_parameters@GateMessage@server@mobile@@AEAAXXZ
?set_has_params@ServerMethod@server@mobile@@AEAAXXZ
?set_has_port@ClientInfo@server@mobile@@AEAAXXZ
?set_has_pre_transfer_entityid@RealEntityCreateInfo@server@mobile@@AEAAXXZ
?set_has_proc@RunProcedureRequest@server@mobile@@AEAAXXZ
?set_has_query@CountDocRequest@server@mobile@@AEAAXXZ
?set_has_query@DeleteDocRequest@server@mobile@@AEAAXXZ
?set_has_query@FindAndModifyDocRequest@server@mobile@@AEAAXXZ
?set_has_query@FindDocRequest@server@mobile@@AEAAXXZ
?set_has_query@OperIndexRequest@server@mobile@@AEAAXXZ
?set_has_query@RedisExecRequest@server@mobile@@AEAAXXZ
?set_has_query@RedisMultiExecRequest@server@mobile@@AEAAXXZ
?set_has_query@RedisPiplineExecRequest@server@mobile@@AEAAXXZ
?set_has_query@UpdateDocRequest@server@mobile@@AEAAXXZ
?set_has_random_padding_header@SessionKey@server@mobile@@AEAAXXZ
?set_has_random_padding_tail@SessionKey@server@mobile@@AEAAXXZ
?set_has_range_num@LocalIdMessage@server@mobile@@AEAAXXZ
?set_has_read_pref@FindDocRequest@server@mobile@@AEAAXXZ
?set_has_real_class_type@RealEntityCreateInfo@server@mobile@@AEAAXXZ
?set_has_real_entityid@RealEntityCreateInfo@server@mobile@@AEAAXXZ
?set_has_remove@FindAndModifyDocRequest@server@mobile@@AEAAXXZ
?set_has_reply_docs@RedisExecResponse@server@mobile@@AEAAXXZ
?set_has_reply_docs@RedisMultiExecResponse@server@mobile@@AEAAXXZ
?set_has_reply_docs@RedisPiplineExecResponse@server@mobile@@AEAAXXZ
?set_has_return_status@Gate2GameReturnVal@server@mobile@@AEAAXXZ
?set_has_return_status@GateReturnVal@server@mobile@@AEAAXXZ
?set_has_return_status@GmReturnVal@server@mobile@@AEAAXXZ
?set_has_return_val@Gate2GameReturnVal@server@mobile@@AEAAXXZ
?set_has_return_val@GmReturnVal@server@mobile@@AEAAXXZ
?set_has_routes@CustomServiceMsg@server@mobile@@AEAAXXZ
?set_has_routes@FilterUserDatas@server@mobile@@AEAAXXZ
?set_has_routes@RegistMd5IndexMsg@server@mobile@@AEAAXXZ
?set_has_script_content@Script@server@mobile@@AEAAXXZ
?set_has_seed@SessionKey@server@mobile@@AEAAXXZ
?set_has_seed@SessionSeed@server@mobile@@AEAAXXZ
?set_has_seq_key@DeleteDocRequest@server@mobile@@AEAAXXZ
?set_has_seq_key@FindAndModifyDocRequest@server@mobile@@AEAAXXZ
?set_has_seq_key@FindDocRequest@server@mobile@@AEAAXXZ
?set_has_seq_key@InsertDocRequest@server@mobile@@AEAAXXZ
?set_has_seq_key@UpdateDocRequest@server@mobile@@AEAAXXZ
?set_has_seqflag@DeleteDocRequest@server@mobile@@AEAAXXZ
?set_has_seqflag@FindAndModifyDocRequest@server@mobile@@AEAAXXZ
?set_has_seqflag@FindDocRequest@server@mobile@@AEAAXXZ
?set_has_seqflag@InsertDocRequest@server@mobile@@AEAAXXZ
?set_has_seqflag@UpdateDocRequest@server@mobile@@AEAAXXZ
?set_has_server@ClientBindMsg@server@mobile@@AEAAXXZ
?set_has_server_type@ServerMethod@server@mobile@@AEAAXXZ
?set_has_service_info@CustomServiceMsg@server@mobile@@AEAAXXZ
?set_has_service_name@CustomServiceInfo@server@mobile@@AEAAXXZ
?set_has_session_key@SessionKey@server@mobile@@AEAAXXZ
?set_has_sessionid@ClientInfo@server@mobile@@AEAAXXZ
?set_has_skip@FindDocRequest@server@mobile@@AEAAXXZ
?set_has_sort@FindAndModifyDocRequest@server@mobile@@AEAAXXZ
?set_has_sort@FindDocRequest@server@mobile@@AEAAXXZ
?set_has_soul_mailbox@SoulBindMsg@server@mobile@@AEAAXXZ
?set_has_src_srv@RealEntityCreateInfo@server@mobile@@AEAAXXZ
?set_has_srcmb@ForwardMessageHeader@server@mobile@@AEAAXXZ
?set_has_status@CountDocReply@server@mobile@@AEAAXXZ
?set_has_status@CreateCollectionReply@server@mobile@@AEAAXXZ
?set_has_status@DbStatusMessage@server@mobile@@AEAAXXZ
?set_has_status@DeleteDocReply@server@mobile@@AEAAXXZ
?set_has_status@FindAndModifyDocReply@server@mobile@@AEAAXXZ
?set_has_status@FindDocReply@server@mobile@@AEAAXXZ
?set_has_status@InsertDocReply@server@mobile@@AEAAXXZ
?set_has_status@OperIndexReply@server@mobile@@AEAAXXZ
?set_has_status@RedisExecResponse@server@mobile@@AEAAXXZ
?set_has_status@RedisMultiExecResponse@server@mobile@@AEAAXXZ
?set_has_status@RedisPiplineExecResponse@server@mobile@@AEAAXXZ
?set_has_status@RedisStatusMessage@server@mobile@@AEAAXXZ
?set_has_status@RunProcedureReply@server@mobile@@AEAAXXZ
?set_has_status@UpdateDocReply@server@mobile@@AEAAXXZ
?set_has_strvalue@FilterDataObj@server@mobile@@AEAAXXZ
?set_has_support_dc@SoulBindMsg@server@mobile@@AEAAXXZ
?set_has_transfer_entity@EntityInfoHeader@server@mobile@@AEAAXXZ
?set_has_type@Gate2GameReturnVal@server@mobile@@AEAAXXZ
?set_has_type@GmReturnVal@server@mobile@@AEAAXXZ
?set_has_type@OperIndexRequest@server@mobile@@AEAAXXZ
?set_has_update@FindAndModifyDocRequest@server@mobile@@AEAAXXZ
?set_has_upsert@FindAndModifyDocRequest@server@mobile@@AEAAXXZ
?set_has_upset@UpdateDocRequest@server@mobile@@AEAAXXZ
?set_has_value@GlobalData@server@mobile@@AEAAXXZ
?set_hint@FindDocRequest@server@mobile@@QEAAXAEBV?$basic_string@DU?$char_traits@D@std@@V?$allocator@D@2@@std@@@Z
?set_hint@FindDocRequest@server@mobile@@QEAAXPEBD@Z
?set_hint@FindDocRequest@server@mobile@@QEAAXPEBX_K@Z
?set_id@CustomServiceInfo@server@mobile@@QEAAXAEBV?$basic_string@DU?$char_traits@D@std@@V?$allocator@D@2@@std@@@Z
?set_id@CustomServiceInfo@server@mobile@@QEAAXPEBD@Z
?set_id@CustomServiceInfo@server@mobile@@QEAAXPEBX_K@Z
?set_independent@SoulBindMsg@server@mobile@@QEAAX_N@Z
?set_insert_id@InsertDocReply@server@mobile@@QEAAXAEBV?$basic_string@DU?$char_traits@D@std@@V?$allocator@D@2@@std@@@Z
?set_insert_id@InsertDocReply@server@mobile@@QEAAXPEBD@Z
?set_insert_id@InsertDocReply@server@mobile@@QEAAXPEBX_K@Z
?set_intvalue@FilterDataObj@server@mobile@@QEAAXH@Z
?set_ip@ClientInfo@server@mobile@@QEAAXAEBV?$basic_string@DU?$char_traits@D@std@@V?$allocator@D@2@@std@@@Z
?set_ip@ClientInfo@server@mobile@@QEAAXPEBD@Z
?set_ip@ClientInfo@server@mobile@@QEAAXPEBX_K@Z
?set_ip@MessageIp@server@mobile@@QEAAXAEBV?$basic_string@DU?$char_traits@D@std@@V?$allocator@D@2@@std@@@Z
?set_ip@MessageIp@server@mobile@@QEAAXPEBD@Z
?set_ip@MessageIp@server@mobile@@QEAAXPEBD_K@Z
?set_is_soul@ClientInfo@server@mobile@@QEAAX_N@Z
?set_isp@SessionIsp@server@mobile@@QEAAX_J@Z
?set_key@FilterDataObj@server@mobile@@QEAAXAEBV?$basic_string@DU?$char_traits@D@std@@V?$allocator@D@2@@std@@@Z
?set_key@FilterDataObj@server@mobile@@QEAAXPEBD@Z
?set_key@FilterDataObj@server@mobile@@QEAAXPEBX_K@Z
?set_key@GlobalData@server@mobile@@QEAAXAEBV?$basic_string@DU?$char_traits@D@std@@V?$allocator@D@2@@std@@@Z
?set_key@GlobalData@server@mobile@@QEAAXPEBD@Z
?set_key@GlobalData@server@mobile@@QEAAXPEBX_K@Z
?set_kwargs@RedisExecRequest@server@mobile@@QEAAXAEBV?$basic_string@DU?$char_traits@D@std@@V?$allocator@D@2@@std@@@Z
?set_kwargs@RedisExecRequest@server@mobile@@QEAAXPEBD@Z
?set_kwargs@RedisExecRequest@server@mobile@@QEAAXPEBX_K@Z
?set_kwargs@RunProcedureRequest@server@mobile@@QEAAXAEBV?$basic_string@DU?$char_traits@D@std@@V?$allocator@D@2@@std@@@Z
?set_kwargs@RunProcedureRequest@server@mobile@@QEAAXPEBD@Z
?set_kwargs@RunProcedureRequest@server@mobile@@QEAAXPEBX_K@Z
?set_limit@FindDocRequest@server@mobile@@QEAAXH@Z
?set_load@GameLoad@server@mobile@@QEAAXN@Z
?set_localid@RealEntityCreateInfo@server@mobile@@QEAAXH@Z
?set_login_crypter@service_manager@async@@QEAAXPEAV?$lock_free_stack_node@Vlogin_key_encrypter@async@@@2@@Z
?set_login_path@service_manager@async@@QEAAXAEBV?$basic_string@DU?$char_traits@D@std@@V?$allocator@D@2@@std@@@Z
?set_mem_level@service@async@@UEAAXH@Z
?set_message@GlobalMessage@server@mobile@@QEAAXAEBV?$basic_string@DU?$char_traits@D@std@@V?$allocator@D@2@@std@@@Z
?set_message@GlobalMessage@server@mobile@@QEAAXPEBD@Z
?set_message@GlobalMessage@server@mobile@@QEAAXPEBX_K@Z
?set_method@CallDBRequest@server@mobile@@QEAAXAEBV?$basic_string@DU?$char_traits@D@std@@V?$allocator@D@2@@std@@@Z
?set_method@CallDBRequest@server@mobile@@QEAAXPEBD@Z
?set_method@CallDBRequest@server@mobile@@QEAAXPEBX_K@Z
?set_method@CustomServiceMsg@server@mobile@@QEAAXAEBV?$basic_string@DU?$char_traits@D@std@@V?$allocator@D@2@@std@@@Z
?set_method@CustomServiceMsg@server@mobile@@QEAAXPEBD@Z
?set_method@CustomServiceMsg@server@mobile@@QEAAXPEBX_K@Z
?set_method@ServerMethod@server@mobile@@QEAAXAEBV?$basic_string@DU?$char_traits@D@std@@V?$allocator@D@2@@std@@@Z
?set_method@ServerMethod@server@mobile@@QEAAXPEBD@Z
?set_method@ServerMethod@server@mobile@@QEAAXPEBX_K@Z
?set_multi@UpdateDocRequest@server@mobile@@QEAAX_N@Z
?set_new_@FindAndModifyDocRequest@server@mobile@@QEAAX_N@Z
?set_op@CtrlType@server@mobile@@QEAAXW4CtrlType_CtrlOp@23@@Z
?set_operations@CreateCollectionRequest@server@mobile@@QEAAXAEBV?$basic_string@DU?$char_traits@D@std@@V?$allocator@D@2@@std@@@Z
?set_operations@CreateCollectionRequest@server@mobile@@QEAAXPEBD@Z
?set_operations@CreateCollectionRequest@server@mobile@@QEAAXPEBX_K@Z
?set_override@GlobalEntityRegMsg@server@mobile@@QEAAX_N@Z
?set_parameters@CustomServiceMsg@server@mobile@@QEAAXAEBV?$basic_string@DU?$char_traits@D@std@@V?$allocator@D@2@@std@@@Z
?set_parameters@CustomServiceMsg@server@mobile@@QEAAXPEBD@Z
?set_parameters@CustomServiceMsg@server@mobile@@QEAAXPEBX_K@Z
?set_parameters@GateMessage@server@mobile@@QEAAXAEBV?$basic_string@DU?$char_traits@D@std@@V?$allocator@D@2@@std@@@Z
?set_parameters@GateMessage@server@mobile@@QEAAXPEBD@Z
?set_parameters@GateMessage@server@mobile@@QEAAXPEBX_K@Z
?set_params@ServerMethod@server@mobile@@QEAAXAEBV?$basic_string@DU?$char_traits@D@std@@V?$allocator@D@2@@std@@@Z
?set_params@ServerMethod@server@mobile@@QEAAXPEBD@Z
?set_params@ServerMethod@server@mobile@@QEAAXPEBX_K@Z
?set_port@ClientInfo@server@mobile@@QEAAXH@Z
?set_pre_transfer_entityid@RealEntityCreateInfo@server@mobile@@QEAAXAEBV?$basic_string@DU?$char_traits@D@std@@V?$allocator@D@2@@std@@@Z
?set_pre_transfer_entityid@RealEntityCreateInfo@server@mobile@@QEAAXPEBD@Z
?set_pre_transfer_entityid@RealEntityCreateInfo@server@mobile@@QEAAXPEBX_K@Z
?set_proc@RunProcedureRequest@server@mobile@@QEAAXAEBV?$basic_string@DU?$char_traits@D@std@@V?$allocator@D@2@@std@@@Z
?set_proc@RunProcedureRequest@server@mobile@@QEAAXPEBD@Z
?set_proc@RunProcedureRequest@server@mobile@@QEAAXPEBX_K@Z
?set_query@CountDocRequest@server@mobile@@QEAAXAEBV?$basic_string@DU?$char_traits@D@std@@V?$allocator@D@2@@std@@@Z
?set_query@CountDocRequest@server@mobile@@QEAAXPEBD@Z
?set_query@CountDocRequest@server@mobile@@QEAAXPEBX_K@Z
?set_query@DeleteDocRequest@server@mobile@@QEAAXAEBV?$basic_string@DU?$char_traits@D@std@@V?$allocator@D@2@@std@@@Z
?set_query@DeleteDocRequest@server@mobile@@QEAAXPEBD@Z
?set_query@DeleteDocRequest@server@mobile@@QEAAXPEBX_K@Z
?set_query@FindAndModifyDocRequest@server@mobile@@QEAAXAEBV?$basic_string@DU?$char_traits@D@std@@V?$allocator@D@2@@std@@@Z
?set_query@FindAndModifyDocRequest@server@mobile@@QEAAXPEBD@Z
?set_query@FindAndModifyDocRequest@server@mobile@@QEAAXPEBX_K@Z
?set_query@FindDocRequest@server@mobile@@QEAAXAEBV?$basic_string@DU?$char_traits@D@std@@V?$allocator@D@2@@std@@@Z
?set_query@FindDocRequest@server@mobile@@QEAAXPEBD@Z
?set_query@FindDocRequest@server@mobile@@QEAAXPEBX_K@Z
?set_query@OperIndexRequest@server@mobile@@QEAAXAEBV?$basic_string@DU?$char_traits@D@std@@V?$allocator@D@2@@std@@@Z
?set_query@OperIndexRequest@server@mobile@@QEAAXPEBD@Z
?set_query@OperIndexRequest@server@mobile@@QEAAXPEBX_K@Z
?set_query@RedisExecRequest@server@mobile@@QEAAXAEBV?$basic_string@DU?$char_traits@D@std@@V?$allocator@D@2@@std@@@Z
?set_query@RedisExecRequest@server@mobile@@QEAAXPEBD@Z
?set_query@RedisExecRequest@server@mobile@@QEAAXPEBX_K@Z
?set_query@RedisMultiExecRequest@server@mobile@@QEAAXAEBV?$basic_string@DU?$char_traits@D@std@@V?$allocator@D@2@@std@@@Z
?set_query@RedisMultiExecRequest@server@mobile@@QEAAXPEBD@Z
?set_query@RedisMultiExecRequest@server@mobile@@QEAAXPEBX_K@Z
?set_query@RedisPiplineExecRequest@server@mobile@@QEAAXAEBV?$basic_string@DU?$char_traits@D@std@@V?$allocator@D@2@@std@@@Z
?set_query@RedisPiplineExecRequest@server@mobile@@QEAAXPEBD@Z
?set_query@RedisPiplineExecRequest@server@mobile@@QEAAXPEBX_K@Z
?set_query@UpdateDocRequest@server@mobile@@QEAAXAEBV?$basic_string@DU?$char_traits@D@std@@V?$allocator@D@2@@std@@@Z
?set_query@UpdateDocRequest@server@mobile@@QEAAXPEBD@Z
?set_query@UpdateDocRequest@server@mobile@@QEAAXPEBX_K@Z
?set_random_padding_header@SessionKey@server@mobile@@QEAAXAEBV?$basic_string@DU?$char_traits@D@std@@V?$allocator@D@2@@std@@@Z
?set_random_padding_header@SessionKey@server@mobile@@QEAAXPEBD@Z
?set_random_padding_header@SessionKey@server@mobile@@QEAAXPEBX_K@Z
?set_random_padding_tail@SessionKey@server@mobile@@QEAAXAEBV?$basic_string@DU?$char_traits@D@std@@V?$allocator@D@2@@std@@@Z
?set_random_padding_tail@SessionKey@server@mobile@@QEAAXPEBD@Z
?set_random_padding_tail@SessionKey@server@mobile@@QEAAXPEBX_K@Z
?set_range_num@LocalIdMessage@server@mobile@@QEAAXH@Z
?set_read_pref@FindDocRequest@server@mobile@@QEAAXH@Z
?set_real_class_type@RealEntityCreateInfo@server@mobile@@QEAAXAEBV?$basic_string@DU?$char_traits@D@std@@V?$allocator@D@2@@std@@@Z
?set_real_class_type@RealEntityCreateInfo@server@mobile@@QEAAXPEBD@Z
?set_real_class_type@RealEntityCreateInfo@server@mobile@@QEAAXPEBX_K@Z
?set_real_entityid@RealEntityCreateInfo@server@mobile@@QEAAXAEBV?$basic_string@DU?$char_traits@D@std@@V?$allocator@D@2@@std@@@Z
?set_real_entityid@RealEntityCreateInfo@server@mobile@@QEAAXPEBD@Z
?set_real_entityid@RealEntityCreateInfo@server@mobile@@QEAAXPEBX_K@Z
?set_recv_limit@service@async@@UEAAX_K@Z
?set_remove@FindAndModifyDocRequest@server@mobile@@QEAAX_N@Z
?set_reply_docs@RedisExecResponse@server@mobile@@QEAAXAEBV?$basic_string@DU?$char_traits@D@std@@V?$allocator@D@2@@std@@@Z
?set_reply_docs@RedisExecResponse@server@mobile@@QEAAXPEBD@Z
?set_reply_docs@RedisExecResponse@server@mobile@@QEAAXPEBX_K@Z
?set_reply_docs@RedisMultiExecResponse@server@mobile@@QEAAXAEBV?$basic_string@DU?$char_traits@D@std@@V?$allocator@D@2@@std@@@Z
?set_reply_docs@RedisMultiExecResponse@server@mobile@@QEAAXPEBD@Z
?set_reply_docs@RedisMultiExecResponse@server@mobile@@QEAAXPEBX_K@Z
?set_reply_docs@RedisPiplineExecResponse@server@mobile@@QEAAXAEBV?$basic_string@DU?$char_traits@D@std@@V?$allocator@D@2@@std@@@Z
?set_reply_docs@RedisPiplineExecResponse@server@mobile@@QEAAXPEBD@Z
?set_reply_docs@RedisPiplineExecResponse@server@mobile@@QEAAXPEBX_K@Z
?set_return_status@Gate2GameReturnVal@server@mobile@@QEAAX_N@Z
?set_return_status@GateReturnVal@server@mobile@@QEAAX_N@Z
?set_return_status@GmReturnVal@server@mobile@@QEAAX_N@Z
?set_return_val@Gate2GameReturnVal@server@mobile@@QEAAXAEBV?$basic_string@DU?$char_traits@D@std@@V?$allocator@D@2@@std@@@Z
?set_return_val@Gate2GameReturnVal@server@mobile@@QEAAXPEBD@Z
?set_return_val@Gate2GameReturnVal@server@mobile@@QEAAXPEBX_K@Z
?set_return_val@GmReturnVal@server@mobile@@QEAAXAEBV?$basic_string@DU?$char_traits@D@std@@V?$allocator@D@2@@std@@@Z
?set_return_val@GmReturnVal@server@mobile@@QEAAXPEBD@Z
?set_return_val@GmReturnVal@server@mobile@@QEAAXPEBX_K@Z
?set_routes@CustomServiceMsg@server@mobile@@QEAAXAEBV?$basic_string@DU?$char_traits@D@std@@V?$allocator@D@2@@std@@@Z
?set_routes@CustomServiceMsg@server@mobile@@QEAAXPEBD@Z
?set_routes@CustomServiceMsg@server@mobile@@QEAAXPEBX_K@Z
?set_routes@FilterUserDatas@server@mobile@@QEAAXAEBV?$basic_string@DU?$char_traits@D@std@@V?$allocator@D@2@@std@@@Z
?set_routes@FilterUserDatas@server@mobile@@QEAAXPEBD@Z
?set_routes@FilterUserDatas@server@mobile@@QEAAXPEBX_K@Z
?set_routes@RegistMd5IndexMsg@server@mobile@@QEAAXAEBV?$basic_string@DU?$char_traits@D@std@@V?$allocator@D@2@@std@@@Z
?set_routes@RegistMd5IndexMsg@server@mobile@@QEAAXPEBD@Z
?set_routes@RegistMd5IndexMsg@server@mobile@@QEAAXPEBX_K@Z
?set_script_content@Script@server@mobile@@QEAAXAEBV?$basic_string@DU?$char_traits@D@std@@V?$allocator@D@2@@std@@@Z
?set_script_content@Script@server@mobile@@QEAAXPEBD@Z
?set_script_content@Script@server@mobile@@QEAAXPEBX_K@Z
?set_seed@SessionKey@server@mobile@@QEAAX_J@Z
?set_seed@SessionSeed@server@mobile@@QEAAX_J@Z
?set_seq_key@DeleteDocRequest@server@mobile@@QEAAXAEBV?$basic_string@DU?$char_traits@D@std@@V?$allocator@D@2@@std@@@Z
?set_seq_key@DeleteDocRequest@server@mobile@@QEAAXPEBD@Z
?set_seq_key@DeleteDocRequest@server@mobile@@QEAAXPEBX_K@Z
?set_seq_key@FindAndModifyDocRequest@server@mobile@@QEAAXAEBV?$basic_string@DU?$char_traits@D@std@@V?$allocator@D@2@@std@@@Z
?set_seq_key@FindAndModifyDocRequest@server@mobile@@QEAAXPEBD@Z
?set_seq_key@FindAndModifyDocRequest@server@mobile@@QEAAXPEBX_K@Z
?set_seq_key@FindDocRequest@server@mobile@@QEAAXAEBV?$basic_string@DU?$char_traits@D@std@@V?$allocator@D@2@@std@@@Z
?set_seq_key@FindDocRequest@server@mobile@@QEAAXPEBD@Z
?set_seq_key@FindDocRequest@server@mobile@@QEAAXPEBX_K@Z
?set_seq_key@InsertDocRequest@server@mobile@@QEAAXAEBV?$basic_string@DU?$char_traits@D@std@@V?$allocator@D@2@@std@@@Z
?set_seq_key@InsertDocRequest@server@mobile@@QEAAXPEBD@Z
?set_seq_key@InsertDocRequest@server@mobile@@QEAAXPEBX_K@Z
?set_seq_key@UpdateDocRequest@server@mobile@@QEAAXAEBV?$basic_string@DU?$char_traits@D@std@@V?$allocator@D@2@@std@@@Z
?set_seq_key@UpdateDocRequest@server@mobile@@QEAAXPEBD@Z
?set_seq_key@UpdateDocRequest@server@mobile@@QEAAXPEBX_K@Z
?set_seqflag@DeleteDocRequest@server@mobile@@QEAAX_N@Z
?set_seqflag@FindAndModifyDocRequest@server@mobile@@QEAAX_N@Z
?set_seqflag@FindDocRequest@server@mobile@@QEAAX_N@Z
?set_seqflag@InsertDocRequest@server@mobile@@QEAAX_N@Z
?set_seqflag@UpdateDocRequest@server@mobile@@QEAAX_N@Z
?set_server_type@ServerMethod@server@mobile@@QEAAXH@Z
?set_service@service@async@@UEAAXPEAViservice@2@@Z
?set_service_factory@service_manager@async@@QEAAXV?$shared_ptr@Viservice_factory@async@@@boost@@@Z
?set_service_name@CustomServiceInfo@server@mobile@@QEAAXAEBV?$basic_string@DU?$char_traits@D@std@@V?$allocator@D@2@@std@@@Z
?set_service_name@CustomServiceInfo@server@mobile@@QEAAXPEBD@Z
?set_service_name@CustomServiceInfo@server@mobile@@QEAAXPEBX_K@Z
?set_session_key@SessionKey@server@mobile@@QEAAXAEBV?$basic_string@DU?$char_traits@D@std@@V?$allocator@D@2@@std@@@Z
?set_session_key@SessionKey@server@mobile@@QEAAXPEBD@Z
?set_session_key@SessionKey@server@mobile@@QEAAXPEBX_K@Z
?set_sessionid@ClientInfo@server@mobile@@QEAAXAEBV?$basic_string@DU?$char_traits@D@std@@V?$allocator@D@2@@std@@@Z
?set_sessionid@ClientInfo@server@mobile@@QEAAXPEBD@Z
?set_sessionid@ClientInfo@server@mobile@@QEAAXPEBX_K@Z
?set_skip@FindDocRequest@server@mobile@@QEAAXAEBV?$basic_string@DU?$char_traits@D@std@@V?$allocator@D@2@@std@@@Z
?set_skip@FindDocRequest@server@mobile@@QEAAXPEBD@Z
?set_skip@FindDocRequest@server@mobile@@QEAAXPEBX_K@Z
?set_sort@FindAndModifyDocRequest@server@mobile@@QEAAXAEBV?$basic_string@DU?$char_traits@D@std@@V?$allocator@D@2@@std@@@Z
?set_sort@FindAndModifyDocRequest@server@mobile@@QEAAXPEBD@Z
?set_sort@FindAndModifyDocRequest@server@mobile@@QEAAXPEBX_K@Z
?set_sort@FindDocRequest@server@mobile@@QEAAXAEBV?$basic_string@DU?$char_traits@D@std@@V?$allocator@D@2@@std@@@Z
?set_sort@FindDocRequest@server@mobile@@QEAAXPEBD@Z
?set_sort@FindDocRequest@server@mobile@@QEAAXPEBX_K@Z
?set_status@CountDocReply@server@mobile@@QEAAX_N@Z
?set_status@CreateCollectionReply@server@mobile@@QEAAXW4CreateCollectionReply_CrateCollectionStatus@23@@Z
?set_status@DbStatusMessage@server@mobile@@QEAAXW4DbStatusMessage_DbStatus@23@@Z
?set_status@DeleteDocReply@server@mobile@@QEAAX_N@Z
?set_status@FindAndModifyDocReply@server@mobile@@QEAAX_N@Z
?set_status@FindDocReply@server@mobile@@QEAAX_N@Z
?set_status@InsertDocReply@server@mobile@@QEAAX_N@Z
?set_status@OperIndexReply@server@mobile@@QEAAX_N@Z
?set_status@RedisExecResponse@server@mobile@@QEAAXH@Z
?set_status@RedisMultiExecResponse@server@mobile@@QEAAXH@Z
?set_status@RedisPiplineExecResponse@server@mobile@@QEAAXH@Z
?set_status@RedisStatusMessage@server@mobile@@QEAAXW4RedisStatusMessage_RedisStatus@23@@Z
?set_status@RunProcedureReply@server@mobile@@QEAAX_N@Z
?set_status@UpdateDocReply@server@mobile@@QEAAX_N@Z
?set_strvalue@FilterDataObj@server@mobile@@QEAAXAEBV?$basic_string@DU?$char_traits@D@std@@V?$allocator@D@2@@std@@@Z
?set_strvalue@FilterDataObj@server@mobile@@QEAAXPEBD@Z
?set_strvalue@FilterDataObj@server@mobile@@QEAAXPEBX_K@Z
?set_support_dc@SoulBindMsg@server@mobile@@QEAAX_N@Z
?set_transfer_entity@EntityInfoHeader@server@mobile@@QEAAX_N@Z
?set_type@Gate2GameReturnVal@server@mobile@@QEAAXW4Gate2GameReturnVal_CallbackType@23@@Z
?set_type@GmReturnVal@server@mobile@@QEAAXW4GmReturnVal_CallbackType@23@@Z
?set_type@OperIndexRequest@server@mobile@@QEAAXW4OperIndexRequest_OperType@23@@Z
?set_update@FindAndModifyDocRequest@server@mobile@@QEAAXAEBV?$basic_string@DU?$char_traits@D@std@@V?$allocator@D@2@@std@@@Z
?set_update@FindAndModifyDocRequest@server@mobile@@QEAAXPEBD@Z
?set_update@FindAndModifyDocRequest@server@mobile@@QEAAXPEBX_K@Z
?set_upsert@FindAndModifyDocRequest@server@mobile@@QEAAX_N@Z
?set_upset@UpdateDocRequest@server@mobile@@QEAAX_N@Z
?set_userdatas@IGameClient@server@mobile@@UEAAXPEAVRpcController@protobuf@google@@PEBVFilterUserDatas@23@PEAVVoid@23@PEAVClosure@56@@Z
?set_userdatas@IGameClient_Stub@server@mobile@@UEAAXPEAVRpcController@protobuf@google@@PEBVFilterUserDatas@23@PEAVVoid@23@PEAVClosure@56@@Z
?set_value@GlobalData@server@mobile@@QEAAXAEBV?$basic_string@DU?$char_traits@D@std@@V?$allocator@D@2@@std@@@Z
?set_value@GlobalData@server@mobile@@QEAAXPEBD@Z
?set_value@GlobalData@server@mobile@@QEAAXPEBX_K@Z
?set_window_bits@service@async@@UEAAXH@Z
?show_compress_info@service@async@@UEAAXXZ
?skip@FindDocRequest@server@mobile@@QEBAAEBV?$basic_string@DU?$char_traits@D@std@@V?$allocator@D@2@@std@@XZ
?sort@FindAndModifyDocRequest@server@mobile@@QEBAAEBV?$basic_string@DU?$char_traits@D@std@@V?$allocator@D@2@@std@@XZ
?sort@FindDocRequest@server@mobile@@QEBAAEBV?$basic_string@DU?$char_traits@D@std@@V?$allocator@D@2@@std@@XZ
?soul_bound@IGameService@server@mobile@@UEAAXPEAVRpcController@protobuf@google@@PEBVSoulBindMsg@23@PEAVVoid@23@PEAVClosure@56@@Z
?soul_bound@IGameService_Stub@server@mobile@@UEAAXPEAVRpcController@protobuf@google@@PEBVSoulBindMsg@23@PEAVVoid@23@PEAVClosure@56@@Z
?soul_mailbox@SoulBindMsg@server@mobile@@QEBAAEBVEntityMailbox@23@XZ
?soul_message@IGameService@server@mobile@@UEAAXPEAVRpcController@protobuf@google@@PEBVEntityMessage@23@PEAVVoid@23@PEAVClosure@56@@Z
?soul_message@IGameService_Stub@server@mobile@@UEAAXPEAVRpcController@protobuf@google@@PEBVEntityMessage@23@PEAVVoid@23@PEAVClosure@56@@Z
?soul_message@IGateService@server@mobile@@UEAAXPEAVRpcController@protobuf@google@@PEBVEntityMessage@23@PEAVVoid@23@PEAVClosure@56@@Z
?soul_message@IGateService_Stub@server@mobile@@UEAAXPEAVRpcController@protobuf@google@@PEBVEntityMessage@23@PEAVVoid@23@PEAVClosure@56@@Z
?soul_unbound@IGameService@server@mobile@@UEAAXPEAVRpcController@protobuf@google@@PEBVSoulUnbindMsg@23@PEAVVoid@23@PEAVClosure@56@@Z
?soul_unbound@IGameService_Stub@server@mobile@@UEAAXPEAVRpcController@protobuf@google@@PEBVSoulUnbindMsg@23@PEAVVoid@23@PEAVClosure@56@@Z
?src_srv@RealEntityCreateInfo@server@mobile@@QEBAAEBVServerInfo@23@XZ
?srcmb@ForwardMessageHeader@server@mobile@@QEBAAEBVEntityMailbox@23@XZ
?status@CountDocReply@server@mobile@@QEBA_NXZ
?status@CreateCollectionReply@server@mobile@@QEBA?AW4CreateCollectionReply_CrateCollectionStatus@23@XZ
?status@DbStatusMessage@server@mobile@@QEBA?AW4DbStatusMessage_DbStatus@23@XZ
?status@DeleteDocReply@server@mobile@@QEBA_NXZ
?status@FindAndModifyDocReply@server@mobile@@QEBA_NXZ
?status@FindDocReply@server@mobile@@QEBA_NXZ
?status@InsertDocReply@server@mobile@@QEBA_NXZ
?status@OperIndexReply@server@mobile@@QEBA_NXZ
?status@RedisExecResponse@server@mobile@@QEBAHXZ
?status@RedisMultiExecResponse@server@mobile@@QEBAHXZ
?status@RedisPiplineExecResponse@server@mobile@@QEBAHXZ
?status@RedisStatusMessage@server@mobile@@QEBA?AW4RedisStatusMessage_RedisStatus@23@XZ
?status@RunProcedureReply@server@mobile@@QEBA_NXZ
?status@UpdateDocReply@server@mobile@@QEBA_NXZ
?strvalue@FilterDataObj@server@mobile@@QEBAAEBV?$basic_string@DU?$char_traits@D@std@@V?$allocator@D@2@@std@@XZ
?support_dc@SoulBindMsg@server@mobile@@QEBA_NXZ
?sync_battle_event_to_client@IGateClient@server@mobile@@UEAAXPEAVRpcController@protobuf@google@@PEBVBattleEventMessage@23@PEAVVoid@23@PEAVClosure@56@@Z
?sync_battle_event_to_client@IGateClient_Stub@server@mobile@@UEAAXPEAVRpcController@protobuf@google@@PEBVBattleEventMessage@23@PEAVVoid@23@PEAVClosure@56@@Z
?sync_battle_event_to_server@IGateService@server@mobile@@UEAAXPEAVRpcController@protobuf@google@@PEBVBattleEventMessage@23@PEAVVoid@23@PEAVClosure@56@@Z
?sync_battle_event_to_server@IGateService_Stub@server@mobile@@UEAAXPEAVRpcController@protobuf@google@@PEBVBattleEventMessage@23@PEAVVoid@23@PEAVClosure@56@@Z
?sync_frame@IGameClient@server@mobile@@UEAAXPEAVRpcController@protobuf@google@@PEBVFrameMessage@23@PEAVVoid@23@PEAVClosure@56@@Z
?sync_frame@IGameClient_Stub@server@mobile@@UEAAXPEAVRpcController@protobuf@google@@PEBVFrameMessage@23@PEAVVoid@23@PEAVClosure@56@@Z
?sync_frame@IGateClient@server@mobile@@UEAAXPEAVRpcController@protobuf@google@@PEBVFrameMessage@23@PEAVVoid@23@PEAVClosure@56@@Z
?sync_frame@IGateClient_Stub@server@mobile@@UEAAXPEAVRpcController@protobuf@google@@PEBVFrameMessage@23@PEAVVoid@23@PEAVClosure@56@@Z
?test_compress@service@async@@UEAAXW4compress_type@2@@Z
?traceroute_message@IGateService@server@mobile@@UEAAXPEAVRpcController@protobuf@google@@PEBVTraceRoute@23@PEAVVoid@23@PEAVClosure@56@@Z
?traceroute_message@IGateService_Stub@server@mobile@@UEAAXPEAVRpcController@protobuf@google@@PEBVTraceRoute@23@PEAVVoid@23@PEAVClosure@56@@Z
?transfer_entity@EntityInfoHeader@server@mobile@@QEBA_NXZ
?traverse@service@async@@UEAAXV?$shared_ptr@Vrpc_traverse_msg@async@@@boost@@@Z
?type@Gate2GameReturnVal@server@mobile@@QEBA?AW4Gate2GameReturnVal_CallbackType@23@XZ
?type@GmReturnVal@server@mobile@@QEBA?AW4GmReturnVal_CallbackType@23@XZ
?type@OperIndexRequest@server@mobile@@QEBA?AW4OperIndexRequest_OperType@23@XZ
?unbind_client_from_game@IGameService@server@mobile@@UEAAXPEAVRpcController@protobuf@google@@PEBVClientInfo@23@PEAVVoid@23@PEAVClosure@56@@Z
?unbind_client_from_game@IGameService_Stub@server@mobile@@UEAAXPEAVRpcController@protobuf@google@@PEBVClientInfo@23@PEAVVoid@23@PEAVClosure@56@@Z
?unbind_soul@IGameClient@server@mobile@@UEAAXPEAVRpcController@protobuf@google@@PEBVSoulUnbindMsg@23@PEAVVoid@23@PEAVClosure@56@@Z
?unbind_soul@IGameClient_Stub@server@mobile@@UEAAXPEAVRpcController@protobuf@google@@PEBVSoulUnbindMsg@23@PEAVVoid@23@PEAVClosure@56@@Z
?unknown_fields@ActiveCompress@server@mobile@@QEBAAEBVUnknownFieldSet@protobuf@google@@XZ
?unknown_fields@CallDBRequest@server@mobile@@QEBAAEBVUnknownFieldSet@protobuf@google@@XZ
?unknown_fields@CallDBResponse@server@mobile@@QEBAAEBVUnknownFieldSet@protobuf@google@@XZ
?unknown_fields@CallbackId@server@mobile@@QEBAAEBVUnknownFieldSet@protobuf@google@@XZ
?unknown_fields@ClientBindMsg@server@mobile@@QEBAAEBVUnknownFieldSet@protobuf@google@@XZ
?unknown_fields@ClientInfo@server@mobile@@QEBAAEBVUnknownFieldSet@protobuf@google@@XZ
?unknown_fields@CountDocReply@server@mobile@@QEBAAEBVUnknownFieldSet@protobuf@google@@XZ
?unknown_fields@CountDocRequest@server@mobile@@QEBAAEBVUnknownFieldSet@protobuf@google@@XZ
?unknown_fields@CreateCollectionReply@server@mobile@@QEBAAEBVUnknownFieldSet@protobuf@google@@XZ
?unknown_fields@CreateCollectionRequest@server@mobile@@QEBAAEBVUnknownFieldSet@protobuf@google@@XZ
?unknown_fields@CtrlType@server@mobile@@QEBAAEBVUnknownFieldSet@protobuf@google@@XZ
?unknown_fields@CustomServiceInfo@server@mobile@@QEBAAEBVUnknownFieldSet@protobuf@google@@XZ
?unknown_fields@CustomServiceMsg@server@mobile@@QEBAAEBVUnknownFieldSet@protobuf@google@@XZ
?unknown_fields@DbServerInfo@server@mobile@@QEBAAEBVUnknownFieldSet@protobuf@google@@XZ
?unknown_fields@DbStatusMessage@server@mobile@@QEBAAEBVUnknownFieldSet@protobuf@google@@XZ
?unknown_fields@DeleteDocReply@server@mobile@@QEBAAEBVUnknownFieldSet@protobuf@google@@XZ
?unknown_fields@DeleteDocRequest@server@mobile@@QEBAAEBVUnknownFieldSet@protobuf@google@@XZ
?unknown_fields@EncryptString@server@mobile@@QEBAAEBVUnknownFieldSet@protobuf@google@@XZ
?unknown_fields@EntityInfoHeader@server@mobile@@QEBAAEBVUnknownFieldSet@protobuf@google@@XZ
?unknown_fields@FilterDataObj@server@mobile@@QEBAAEBVUnknownFieldSet@protobuf@google@@XZ
?unknown_fields@FilterUserDatas@server@mobile@@QEBAAEBVUnknownFieldSet@protobuf@google@@XZ
?unknown_fields@FindAndModifyDocReply@server@mobile@@QEBAAEBVUnknownFieldSet@protobuf@google@@XZ
?unknown_fields@FindAndModifyDocRequest@server@mobile@@QEBAAEBVUnknownFieldSet@protobuf@google@@XZ
?unknown_fields@FindDocReply@server@mobile@@QEBAAEBVUnknownFieldSet@protobuf@google@@XZ
?unknown_fields@FindDocRequest@server@mobile@@QEBAAEBVUnknownFieldSet@protobuf@google@@XZ
?unknown_fields@ForwardMessageHeader@server@mobile@@QEBAAEBVUnknownFieldSet@protobuf@google@@XZ
?unknown_fields@GameLoad@server@mobile@@QEBAAEBVUnknownFieldSet@protobuf@google@@XZ
?unknown_fields@GameServerInfos@server@mobile@@QEBAAEBVUnknownFieldSet@protobuf@google@@XZ
?unknown_fields@Gate2GameReturnVal@server@mobile@@QEBAAEBVUnknownFieldSet@protobuf@google@@XZ
?unknown_fields@GateInfo@server@mobile@@QEBAAEBVUnknownFieldSet@protobuf@google@@XZ
?unknown_fields@GateMailbox@server@mobile@@QEBAAEBVUnknownFieldSet@protobuf@google@@XZ
?unknown_fields@GateMessage@server@mobile@@QEBAAEBVUnknownFieldSet@protobuf@google@@XZ
?unknown_fields@GateReturnVal@server@mobile@@QEBAAEBVUnknownFieldSet@protobuf@google@@XZ
?unknown_fields@GlobalData@server@mobile@@QEBAAEBVUnknownFieldSet@protobuf@google@@XZ
?unknown_fields@GlobalEntityRegMsg@server@mobile@@QEBAAEBVUnknownFieldSet@protobuf@google@@XZ
?unknown_fields@GlobalMessage@server@mobile@@QEBAAEBVUnknownFieldSet@protobuf@google@@XZ
?unknown_fields@GmReturnVal@server@mobile@@QEBAAEBVUnknownFieldSet@protobuf@google@@XZ
?unknown_fields@InsertDocReply@server@mobile@@QEBAAEBVUnknownFieldSet@protobuf@google@@XZ
?unknown_fields@InsertDocRequest@server@mobile@@QEBAAEBVUnknownFieldSet@protobuf@google@@XZ
?unknown_fields@LocalIdMessage@server@mobile@@QEBAAEBVUnknownFieldSet@protobuf@google@@XZ
?unknown_fields@MessageIp@server@mobile@@QEBAAEBVUnknownFieldSet@protobuf@google@@XZ
?unknown_fields@OperIndexReply@server@mobile@@QEBAAEBVUnknownFieldSet@protobuf@google@@XZ
?unknown_fields@OperIndexRequest@server@mobile@@QEBAAEBVUnknownFieldSet@protobuf@google@@XZ
?unknown_fields@RealEntityCreateInfo@server@mobile@@QEBAAEBVUnknownFieldSet@protobuf@google@@XZ
?unknown_fields@RedisExecRequest@server@mobile@@QEBAAEBVUnknownFieldSet@protobuf@google@@XZ
?unknown_fields@RedisExecResponse@server@mobile@@QEBAAEBVUnknownFieldSet@protobuf@google@@XZ
?unknown_fields@RedisMultiExecRequest@server@mobile@@QEBAAEBVUnknownFieldSet@protobuf@google@@XZ
?unknown_fields@RedisMultiExecResponse@server@mobile@@QEBAAEBVUnknownFieldSet@protobuf@google@@XZ
?unknown_fields@RedisPiplineExecRequest@server@mobile@@QEBAAEBVUnknownFieldSet@protobuf@google@@XZ
?unknown_fields@RedisPiplineExecResponse@server@mobile@@QEBAAEBVUnknownFieldSet@protobuf@google@@XZ
?unknown_fields@RedisStatusMessage@server@mobile@@QEBAAEBVUnknownFieldSet@protobuf@google@@XZ
?unknown_fields@RegistMd5IndexMsg@server@mobile@@QEBAAEBVUnknownFieldSet@protobuf@google@@XZ
?unknown_fields@RunProcedureReply@server@mobile@@QEBAAEBVUnknownFieldSet@protobuf@google@@XZ
?unknown_fields@RunProcedureRequest@server@mobile@@QEBAAEBVUnknownFieldSet@protobuf@google@@XZ
?unknown_fields@Script@server@mobile@@QEBAAEBVUnknownFieldSet@protobuf@google@@XZ
?unknown_fields@ServerMethod@server@mobile@@QEBAAEBVUnknownFieldSet@protobuf@google@@XZ
?unknown_fields@ServiceInfos@server@mobile@@QEBAAEBVUnknownFieldSet@protobuf@google@@XZ
?unknown_fields@SessionIsp@server@mobile@@QEBAAEBVUnknownFieldSet@protobuf@google@@XZ
?unknown_fields@SessionKey@server@mobile@@QEBAAEBVUnknownFieldSet@protobuf@google@@XZ
?unknown_fields@SessionSeed@server@mobile@@QEBAAEBVUnknownFieldSet@protobuf@google@@XZ
?unknown_fields@SoulBindMsg@server@mobile@@QEBAAEBVUnknownFieldSet@protobuf@google@@XZ
?unknown_fields@SoulUnbindMsg@server@mobile@@QEBAAEBVUnknownFieldSet@protobuf@google@@XZ
?unknown_fields@UpdateDocReply@server@mobile@@QEBAAEBVUnknownFieldSet@protobuf@google@@XZ
?unknown_fields@UpdateDocRequest@server@mobile@@QEBAAEBVUnknownFieldSet@protobuf@google@@XZ
?unreg_entity_mailbox@IGameManager@server@mobile@@UEAAXPEAVRpcController@protobuf@google@@PEBVGlobalEntityRegMsg@23@PEAVVoid@23@PEAVClosure@56@@Z
?unreg_entity_mailbox@IGameManagerClient@server@mobile@@UEAAXPEAVRpcController@protobuf@google@@PEBVGlobalEntityRegMsg@23@PEAVVoid@23@PEAVClosure@56@@Z
?unreg_entity_mailbox@IGameManagerClient_Stub@server@mobile@@UEAAXPEAVRpcController@protobuf@google@@PEBVGlobalEntityRegMsg@23@PEAVVoid@23@PEAVClosure@56@@Z
?unreg_entity_mailbox@IGameManager_Stub@server@mobile@@UEAAXPEAVRpcController@protobuf@google@@PEBVGlobalEntityRegMsg@23@PEAVVoid@23@PEAVClosure@56@@Z
?update@FindAndModifyDocRequest@server@mobile@@QEBAAEBV?$basic_string@DU?$char_traits@D@std@@V?$allocator@D@2@@std@@XZ
?update_game_load@IGameClient@server@mobile@@UEAAXPEAVRpcController@protobuf@google@@PEBVGameLoad@23@PEAVVoid@23@PEAVClosure@56@@Z
?update_game_load@IGameClient_Stub@server@mobile@@UEAAXPEAVRpcController@protobuf@google@@PEBVGameLoad@23@PEAVVoid@23@PEAVClosure@56@@Z
?upsert@FindAndModifyDocRequest@server@mobile@@QEBA_NXZ
?upset@UpdateDocRequest@server@mobile@@QEBA_NXZ
?userdatas@FilterUserDatas@server@mobile@@QEBAAEBV?$RepeatedPtrField@VFilterDataObj@server@mobile@@@protobuf@google@@XZ
?userdatas@FilterUserDatas@server@mobile@@QEBAAEBVFilterDataObj@23@H@Z
?userdatas_size@FilterUserDatas@server@mobile@@QEBAHXZ
?value@GlobalData@server@mobile@@QEBAAEBV?$basic_string@DU?$char_traits@D@std@@V?$allocator@D@2@@std@@XZ
AkTlsAllocateSlot
AkTlsFreeSlot
AkTlsGetValue
AkTlsSetValue
PyAIter_Check
PyArg_Parse
PyArg_ParseTuple
PyArg_ParseTupleAndKeywords
PyArg_UnpackTuple
PyArg_VaParse
PyArg_VaParseTupleAndKeywords
PyArg_ValidateKeywordArguments
PyAsyncGen_New
PyAsyncGen_Type
PyBaseObject_Type
PyBool_FromLong
PyBool_Type
PyBuffer_FillContiguousStrides
PyBuffer_FillInfo
PyBuffer_FromContiguous
PyBuffer_GetPointer
PyBuffer_IsContiguous
PyBuffer_Release
PyBuffer_SizeFromFormat
PyBuffer_ToContiguous
PyByteArrayIter_Type
PyByteArray_AsString
PyByteArray_Concat
PyByteArray_FromObject
PyByteArray_FromStringAndSize
PyByteArray_Resize
PyByteArray_Size
PyByteArray_Type
PyBytesIter_Type
PyBytes_AsString
PyBytes_AsStringAndSize
PyBytes_Concat
PyBytes_ConcatAndDel
PyBytes_DecodeEscape
PyBytes_FromFormat
PyBytes_FromFormatV
PyBytes_FromObject
PyBytes_FromString
PyBytes_FromStringAndSize
PyBytes_Repr
PyBytes_Size
PyBytes_Type
PyCFunction_Call
PyCFunction_GetFlags
PyCFunction_GetFunction
PyCFunction_GetSelf
PyCFunction_New
PyCFunction_NewEx
PyCFunction_Type
PyCMethod_New
PyCMethod_Type
PyCallIter_New
PyCallIter_Type
PyCallable_Check
PyCapsule_GetContext
PyCapsule_GetDestructor
PyCapsule_GetName
PyCapsule_GetPointer
PyCapsule_Import
PyCapsule_IsValid
PyCapsule_New
PyCapsule_SetContext
PyCapsule_SetDestructor
PyCapsule_SetName
PyCapsule_SetPointer
PyCapsule_Type
PyCell_Get
PyCell_New
PyCell_Set
PyCell_Type
PyClassMethodDescr_Type
PyClassMethod_New
PyClassMethod_Type
PyCode_Addr2Line
PyCode_Addr2Location
PyCode_GetCellvars
PyCode_GetCode
PyCode_GetFreevars
PyCode_GetVarnames
PyCode_New
PyCode_NewEmpty
PyCode_NewWithPosOnlyArgs
PyCode_Optimize
PyCode_Type
PyCodec_BackslashReplaceErrors
PyCodec_Decode
PyCodec_Decoder
PyCodec_Encode
PyCodec_Encoder
PyCodec_IgnoreErrors
PyCodec_IncrementalDecoder
PyCodec_IncrementalEncoder
PyCodec_KnownEncoding
PyCodec_LookupError
PyCodec_NameReplaceErrors
PyCodec_Register
PyCodec_RegisterError
PyCodec_ReplaceErrors
PyCodec_StreamReader
PyCodec_StreamWriter
PyCodec_StrictErrors
PyCodec_Unregister
PyCodec_XMLCharRefReplaceErrors
PyCompile_OpcodeStackEffect
PyCompile_OpcodeStackEffectWithJump
PyComplex_AsCComplex
PyComplex_FromCComplex
PyComplex_FromDoubles
PyComplex_ImagAsDouble
PyComplex_RealAsDouble
PyComplex_Type
PyConfig_Clear
PyConfig_InitIsolatedConfig
PyConfig_InitPythonConfig
PyConfig_Read
PyConfig_SetArgv
PyConfig_SetBytesArgv
PyConfig_SetBytesString
PyConfig_SetString
PyConfig_SetWideStringList
PyContextToken_Type
PyContextVar_Get
PyContextVar_New
PyContextVar_Reset
PyContextVar_Set
PyContextVar_Type
PyContext_Copy
PyContext_CopyCurrent
PyContext_Enter
PyContext_Exit
PyContext_New
PyContext_Type
PyCoro_New
PyCoro_Type
PyDescr_IsData
PyDescr_NewClassMethod
PyDescr_NewGetSet
PyDescr_NewMember
PyDescr_NewMethod
PyDescr_NewWrapper
PyDictItems_Type
PyDictIterItem_Type
PyDictIterKey_Type
PyDictIterValue_Type
PyDictKeys_Type
PyDictProxy_New
PyDictProxy_Type
PyDictRevIterItem_Type
PyDictRevIterKey_Type
PyDictRevIterValue_Type
PyDictValues_Type
PyDict_Clear
PyDict_Contains
PyDict_Copy
PyDict_DelItem
PyDict_DelItemString
PyDict_GetItem
PyDict_GetItemString
PyDict_GetItemWithError
PyDict_Items
PyDict_Keys
PyDict_Merge
PyDict_MergeFromSeq2
PyDict_New
PyDict_Next
PyDict_SetDefault
PyDict_SetItem
PyDict_SetItemString
PyDict_Size
PyDict_Type
PyDict_Update
PyDict_Values
PyEllipsis_Type
PyEnum_Type
PyErr_BadArgument
PyErr_BadInternalCall
PyErr_CheckSignals
PyErr_Clear
PyErr_Display
PyErr_ExceptionMatches
PyErr_Fetch
PyErr_Format
PyErr_FormatV
PyErr_GetExcInfo
PyErr_GetHandledException
PyErr_GivenExceptionMatches
PyErr_NewException
PyErr_NewExceptionWithDoc
PyErr_NoMemory
PyErr_NormalizeException
PyErr_Occurred
PyErr_Print
PyErr_PrintEx
PyErr_ProgramText
PyErr_ProgramTextObject
PyErr_RangedSyntaxLocationObject
PyErr_ResourceWarning
PyErr_Restore
PyErr_SetExcFromWindowsErr
PyErr_SetExcFromWindowsErrWithFilename
PyErr_SetExcFromWindowsErrWithFilenameObject
PyErr_SetExcFromWindowsErrWithFilenameObjects
PyErr_SetExcInfo
PyErr_SetFromErrno
PyErr_SetFromErrnoWithFilename
PyErr_SetFromErrnoWithFilenameObject
PyErr_SetFromErrnoWithFilenameObjects
PyErr_SetFromWindowsErr
PyErr_SetFromWindowsErrWithFilename
PyErr_SetHandledException
PyErr_SetImportError
PyErr_SetImportErrorSubclass
PyErr_SetInterrupt
PyErr_SetInterruptEx
PyErr_SetNone
PyErr_SetObject
PyErr_SetString
PyErr_SyntaxLocation
PyErr_SyntaxLocationEx
PyErr_SyntaxLocationObject
PyErr_WarnEx
PyErr_WarnExplicit
PyErr_WarnExplicitFormat
PyErr_WarnExplicitObject
PyErr_WarnFormat
PyErr_WriteUnraisable
PyEval_AcquireLock
PyEval_AcquireThread
PyEval_CallFunction
PyEval_CallMethod
PyEval_CallObjectWithKeywords
PyEval_EvalCode
PyEval_EvalCodeEx
PyEval_EvalFrame
PyEval_EvalFrameEx
PyEval_GetBuiltins
PyEval_GetFrame
PyEval_GetFuncDesc
PyEval_GetFuncName
PyEval_GetGlobals
PyEval_GetLocals
PyEval_InitThreads
PyEval_MergeCompilerFlags
PyEval_ReleaseLock
PyEval_ReleaseThread
PyEval_RestoreThread
PyEval_SaveThread
PyEval_SetJankTrace
PyEval_SetProfile
PyEval_SetTrace
PyEval_ThreadsInitialized
PyExc_ArithmeticError
PyExc_AssertionError
PyExc_AttributeError
PyExc_BaseException
PyExc_BaseExceptionGroup
PyExc_BlockingIOError
PyExc_BrokenPipeError
PyExc_BufferError
PyExc_BytesWarning
PyExc_ChildProcessError
PyExc_ConnectionAbortedError
PyExc_ConnectionError
PyExc_ConnectionRefusedError
PyExc_ConnectionResetError
PyExc_DeprecationWarning
PyExc_EOFError
PyExc_EncodingWarning
PyExc_EnvironmentError
PyExc_Exception
PyExc_FileExistsError
PyExc_FileNotFoundError
PyExc_FloatingPointError
PyExc_FutureWarning
PyExc_GeneratorExit
PyExc_IOError
PyExc_ImportError
PyExc_ImportWarning
PyExc_IndentationError
PyExc_IndexError
PyExc_InterruptedError
PyExc_IsADirectoryError
PyExc_KeyError
PyExc_KeyboardInterrupt
PyExc_LookupError
PyExc_MemoryError
PyExc_ModuleNotFoundError
PyExc_NameError
PyExc_NotADirectoryError
PyExc_NotImplementedError
PyExc_OSError
PyExc_OverflowError
PyExc_PendingDeprecationWarning
PyExc_PermissionError
PyExc_ProcessLookupError
PyExc_RecursionError
PyExc_ReferenceError
PyExc_ResourceWarning
PyExc_RuntimeError
PyExc_RuntimeWarning
PyExc_StopAsyncIteration
PyExc_StopIteration
PyExc_SyntaxError
PyExc_SyntaxWarning
PyExc_SystemError
PyExc_SystemExit
PyExc_TabError
PyExc_TimeoutError
PyExc_TypeError
PyExc_UnboundLocalError
PyExc_UnicodeDecodeError
PyExc_UnicodeEncodeError
PyExc_UnicodeError
PyExc_UnicodeTranslateError
PyExc_UnicodeWarning
PyExc_UserWarning
PyExc_ValueError
PyExc_Warning
PyExc_WindowsError
PyExc_ZeroDivisionError
PyExceptionClass_Name
PyException_GetCause
PyException_GetContext
PyException_GetTraceback
PyException_SetCause
PyException_SetContext
PyException_SetTraceback
PyFile_FromFd
PyFile_GetLine
PyFile_NewStdPrinter
PyFile_OpenCode
PyFile_OpenCodeObject
PyFile_SetOpenCodeHook
PyFile_WriteObject
PyFile_WriteString
PyFilter_Type
PyFloat_AsDouble
PyFloat_FromDouble
PyFloat_FromString
PyFloat_GetInfo
PyFloat_GetMax
PyFloat_GetMin
PyFloat_Pack2
PyFloat_Pack4
PyFloat_Pack8
PyFloat_Type
PyFloat_Unpack2
PyFloat_Unpack4
PyFloat_Unpack8
PyFrame_FastToLocals
PyFrame_FastToLocalsWithError
PyFrame_GetBack
PyFrame_GetBuiltins
PyFrame_GetCode
PyFrame_GetGenerator
PyFrame_GetGlobals
PyFrame_GetLasti
PyFrame_GetLineNumber
PyFrame_GetLocals
PyFrame_LocalsToFast
PyFrame_New
PyFrame_Type
PyFrozenSet_New
PyFrozenSet_Type
PyFunction_GetAnnotations
PyFunction_GetClosure
PyFunction_GetCode
PyFunction_GetDefaults
PyFunction_GetGlobals
PyFunction_GetKwDefaults
PyFunction_GetModule
PyFunction_New
PyFunction_NewWithQualName
PyFunction_SetAnnotations
PyFunction_SetClosure
PyFunction_SetDefaults
PyFunction_SetKwDefaults
PyFunction_Type
PyGC_CheckThread
PyGC_Collect
PyGC_Disable
PyGC_Enable
PyGC_IsEnabled
PyGILState_Check
PyGILState_Ensure
PyGILState_GetThisThreadState
PyGILState_Release
PyGen_New
PyGen_NewWithQualName
PyGen_Type
PyGetSetDescr_Type
PyHash_GetFuncDef
PyImport_AddModule
PyImport_AddModuleObject
PyImport_AppendFrozenExtension
PyImport_AppendInittab
PyImport_ExecCodeModule
PyImport_ExecCodeModuleEx
PyImport_ExecCodeModuleObject
PyImport_ExecCodeModuleWithPathnames
PyImport_ExtendFrozenExtension
PyImport_ExtendInittab
PyImport_FrozenModules
PyImport_GetImporter
PyImport_GetMagicNumber
PyImport_GetMagicTag
PyImport_GetModule
PyImport_GetModuleDict
PyImport_Import
PyImport_ImportFrozenModule
PyImport_ImportFrozenModuleObject
PyImport_ImportModule
PyImport_ImportModuleLevel
PyImport_ImportModuleLevelObject
PyImport_ImportModuleNoBlock
PyImport_Inittab
PyImport_ReloadModule
PyIndex_Check
PyInit__abc
PyInit__ast
PyInit__asyncio
PyInit__bisect
PyInit__blake2
PyInit__cmsgpack
PyInit__codecs
PyInit__codecs_cn
PyInit__codecs_hk
PyInit__codecs_iso2022
PyInit__codecs_jp
PyInit__codecs_kr
PyInit__codecs_tw
PyInit__collections
PyInit__contextvars
PyInit__csv
PyInit__datetime
PyInit__elementtree
PyInit__functools
PyInit__hashlib
PyInit__heapq
PyInit__imp
PyInit__io
PyInit__json
PyInit__locale
PyInit__lsprof
PyInit__md5
PyInit__multibytecodec
PyInit__opcode
PyInit__operator
PyInit__overlapped
PyInit__pickle
PyInit__queue
PyInit__random
PyInit__sha1
PyInit__sha256
PyInit__sha3
PyInit__sha512
PyInit__signal
PyInit__socket
PyInit__sqlite3
PyInit__sre
PyInit__ssl
PyInit__stat
PyInit__statistics
PyInit__string
PyInit__struct
PyInit__symtable
PyInit__thread
PyInit__tokenize
PyInit__tracemalloc
PyInit__typing
PyInit__weakref
PyInit__winapi
PyInit__xxsubinterpreters
PyInit__zoneinfo
PyInit_array
PyInit_asiocore
PyInit_atexit
PyInit_audioop
PyInit_binascii
PyInit_bindict
PyInit_cmath
PyInit_cython_scripts
PyInit_errno
PyInit_faulthandler
PyInit_gc
PyInit_itertools
PyInit_math
PyInit_mmap
PyInit_msvcrt
PyInit_nt
PyInit_nxio3
PyInit_pyexpat
PyInit_pyhash
PyInit_select
PyInit_time
PyInit_unicodedata
PyInit_winreg
PyInit_xxsubtype
PyInit_zlib
PyInstanceMethod_Function
PyInstanceMethod_New
PyInstanceMethod_Type
PyInterpreterState_Clear
PyInterpreterState_Delete
PyInterpreterState_Get
PyInterpreterState_GetDict
PyInterpreterState_GetID
PyInterpreterState_Head
PyInterpreterState_Main
PyInterpreterState_New
PyInterpreterState_Next
PyInterpreterState_ThreadHead
PyIter_Check
PyIter_Next
PyIter_Send
PyListIter_Type
PyListRevIter_Type
PyList_Append
PyList_AsTuple
PyList_GetItem
PyList_GetSlice
PyList_Insert
PyList_New
PyList_Reverse
PyList_SetItem
PyList_SetSlice
PyList_Size
PyList_Sort
PyList_Type
PyLongRangeIter_Type
PyLong_AsDouble
PyLong_AsLong
PyLong_AsLongAndOverflow
PyLong_AsLongLong
PyLong_AsLongLongAndOverflow
PyLong_AsSize_t
PyLong_AsSsize_t
PyLong_AsUnsignedLong
PyLong_AsUnsignedLongLong
PyLong_AsUnsignedLongLongMask
PyLong_AsUnsignedLongMask
PyLong_AsVoidPtr
PyLong_FromDouble
PyLong_FromLong
PyLong_FromLongLong
PyLong_FromSize_t
PyLong_FromSsize_t
PyLong_FromString
PyLong_FromUnicodeObject
PyLong_FromUnsignedLong
PyLong_FromUnsignedLongLong
PyLong_FromVoidPtr
PyLong_GetInfo
PyLong_Type
PyMap_Type
PyMapping_Check
PyMapping_GetItemString
PyMapping_HasKey
PyMapping_HasKeyString
PyMapping_Items
PyMapping_Keys
PyMapping_Length
PyMapping_SetItemString
PyMapping_Size
PyMapping_Values
PyMarshal_Init
PyMarshal_ReadLastObjectFromFile
PyMarshal_ReadLongFromFile
PyMarshal_ReadObjectFromFile
PyMarshal_ReadObjectFromString
PyMarshal_ReadShortFromFile
PyMarshal_WriteLongToFile
PyMarshal_WriteObjectToFile
PyMarshal_WriteObjectToString
PyMem_Calloc
PyMem_Free
PyMem_GetAllocator
PyMem_Malloc
PyMem_RawCalloc
PyMem_RawFree
PyMem_RawMalloc
PyMem_RawRealloc
PyMem_Realloc
PyMem_SetAllocator
PyMem_SetupDebugHooks
PyMemberDescr_Type
PyMember_GetOne
PyMember_SetOne
PyMemoryView_FromBuffer
PyMemoryView_FromMemory
PyMemoryView_FromObject
PyMemoryView_GetContiguous
PyMemoryView_Type
PyMethodDescr_Type
PyMethod_Function
PyMethod_New
PyMethod_Self
PyMethod_Type
PyModuleDef_Init
PyModuleDef_Type
PyModule_AddFunctions
PyModule_AddIntConstant
PyModule_AddObject
PyModule_AddObjectRef
PyModule_AddStringConstant
PyModule_AddType
PyModule_Create2
PyModule_ExecDef
PyModule_FromDefAndSpec2
PyModule_GetDef
PyModule_GetDict
PyModule_GetFilename
PyModule_GetFilenameObject
PyModule_GetName
PyModule_GetNameObject
PyModule_GetState
PyModule_New
PyModule_NewObject
PyModule_SetDocString
PyModule_Type
PyNumber_Absolute
PyNumber_Add
PyNumber_And
PyNumber_AsSsize_t
PyNumber_Check
PyNumber_Divmod
PyNumber_Float
PyNumber_FloorDivide
PyNumber_InPlaceAdd
PyNumber_InPlaceAnd
PyNumber_InPlaceFloorDivide
PyNumber_InPlaceLshift
PyNumber_InPlaceMatrixMultiply
PyNumber_InPlaceMultiply
PyNumber_InPlaceOr
PyNumber_InPlacePower
PyNumber_InPlaceRemainder
PyNumber_InPlaceRshift
PyNumber_InPlaceSubtract
PyNumber_InPlaceTrueDivide
PyNumber_InPlaceXor
PyNumber_Index
PyNumber_Invert
PyNumber_Long
PyNumber_Lshift
PyNumber_MatrixMultiply
PyNumber_Multiply
PyNumber_Negative
PyNumber_Or
PyNumber_Positive
PyNumber_Power
PyNumber_Remainder
PyNumber_Rshift
PyNumber_Subtract
PyNumber_ToBase
PyNumber_TrueDivide
PyNumber_Xor
PyODictItems_Type
PyODictIter_Type
PyODictKeys_Type
PyODictValues_Type
PyODict_DelItem
PyODict_New
PyODict_SetItem
PyODict_Type
PyOS_AfterFork
PyOS_FSPath
PyOS_InputHook
PyOS_InterruptOccurred
PyOS_Readline
PyOS_ReadlineFunctionPointer
PyOS_double_to_string
PyOS_getsig
PyOS_mystricmp
PyOS_mystrnicmp
PyOS_setsig
PyOS_snprintf
PyOS_string_to_double
PyOS_strtol
PyOS_strtoul
PyOS_vsnprintf
PyObject_ASCII
PyObject_AsCharBuffer
PyObject_AsFileDescriptor
PyObject_AsReadBuffer
PyObject_AsWriteBuffer
PyObject_Bytes
PyObject_Call
PyObject_CallFinalizer
PyObject_CallFinalizerFromDealloc
PyObject_CallFunction
PyObject_CallFunctionObjArgs
PyObject_CallMethod
PyObject_CallMethodObjArgs
PyObject_CallNoArgs
PyObject_CallObject
PyObject_CallOneArg
PyObject_Calloc
PyObject_CheckBuffer
PyObject_CheckReadBuffer
PyObject_ClearWeakRefs
PyObject_CopyData
PyObject_DelItem
PyObject_DelItemString
PyObject_Dir
PyObject_Format
PyObject_Free
PyObject_GC_Del
PyObject_GC_IsFinalized
PyObject_GC_IsTracked
PyObject_GC_Track
PyObject_GC_UnTrack
PyObject_GET_WEAKREFS_LISTPTR
PyObject_GenericGetAttr
PyObject_GenericGetDict
PyObject_GenericSetAttr
PyObject_GenericSetDict
PyObject_GetAIter
PyObject_GetArenaAllocator
PyObject_GetAttr
PyObject_GetAttrString
PyObject_GetBuffer
PyObject_GetItem
PyObject_GetIter
PyObject_HasAttr
PyObject_HasAttrString
PyObject_Hash
PyObject_HashNotImplemented
PyObject_IS_GC
PyObject_Init
PyObject_InitVar
PyObject_IsInstance
PyObject_IsSubclass
PyObject_IsTrue
PyObject_Length
PyObject_LengthHint
PyObject_Malloc
PyObject_Not
PyObject_Print
PyObject_Realloc
PyObject_Repr
PyObject_RichCompare
PyObject_RichCompareBool
PyObject_SelfIter
PyObject_SetArenaAllocator
PyObject_SetAttr
PyObject_SetAttrString
PyObject_SetItem
PyObject_Size
PyObject_Str
PyObject_Type
PyObject_Vectorcall
PyObject_VectorcallDict
PyObject_VectorcallMethod
PyPickleBuffer_FromObject
PyPickleBuffer_GetBuffer
PyPickleBuffer_Release
PyPickleBuffer_Type
PyPreConfig_InitIsolatedConfig
PyPreConfig_InitPythonConfig
PyProperty_Type
PyRangeIter_Type
PyRange_Type
PyReversed_Type
PyRun_AnyFile
PyRun_AnyFileEx
PyRun_AnyFileExFlags
PyRun_AnyFileFlags
PyRun_File
PyRun_FileEx
PyRun_FileExFlags
PyRun_FileFlags
PyRun_InteractiveLoop
PyRun_InteractiveLoopFlags
PyRun_InteractiveOne
PyRun_InteractiveOneFlags
PyRun_InteractiveOneObject
PyRun_SimpleFile
PyRun_SimpleFileEx
PyRun_SimpleFileExFlags
PyRun_SimpleString
PyRun_SimpleStringFlags
PyRun_String
PyRun_StringFlags
PySeqIter_New
PySeqIter_Type
PySequence_Check
PySequence_Concat
PySequence_Contains
PySequence_Count
PySequence_DelItem
PySequence_DelSlice
PySequence_Fast
PySequence_GetItem
PySequence_GetSlice
PySequence_In
PySequence_InPlaceConcat
PySequence_InPlaceRepeat
PySequence_Index
PySequence_Length
PySequence_List
PySequence_Repeat
PySequence_SetItem
PySequence_SetSlice
PySequence_Size
PySequence_Tuple
PySetIter_Type
PySet_Add
PySet_Clear
PySet_Contains
PySet_Discard
PySet_New
PySet_Pop
PySet_Size
PySet_Type
PySlice_AdjustIndices
PySlice_GetIndices
PySlice_GetIndicesEx
PySlice_New
PySlice_Type
PySlice_Unpack
PyState_AddModule
PyState_FindModule
PyState_RemoveModule
PyStaticMethod_New
PyStaticMethod_Type
PyStatus_Error
PyStatus_Exception
PyStatus_Exit
PyStatus_IsError
PyStatus_IsExit
PyStatus_NoMemory
PyStatus_Ok
PyStdPrinter_Type
PyString_AsStringAndSize
PyString_Concat
PyString_ConcatAndDel
PyString_Size
PyStructSequence_GetItem
PyStructSequence_InitType
PyStructSequence_InitType2
PyStructSequence_New
PyStructSequence_NewType
PyStructSequence_SetItem
PyStructSequence_UnnamedField
PySuper_Type
PySymtable_Lookup
PySys_AddAuditHook
PySys_AddWarnOption
PySys_AddWarnOptionUnicode
PySys_AddXOption
PySys_Audit
PySys_FormatStderr
PySys_FormatStdout
PySys_GetObject
PySys_GetXOptions
PySys_HasWarnOptions
PySys_ResetWarnOptions
PySys_SetArgv
PySys_SetArgvEx
PySys_SetObject
PySys_SetPath
PySys_WriteStderr
PySys_WriteStdout
PyThreadState_Clear
PyThreadState_Delete
PyThreadState_DeleteCurrent
PyThreadState_EnterTracing
PyThreadState_Get
PyThreadState_GetDict
PyThreadState_GetFrame
PyThreadState_GetID
PyThreadState_GetInterpreter
PyThreadState_LeaveTracing
PyThreadState_New
PyThreadState_Next
PyThreadState_SetAsyncExc
PyThreadState_Swap
PyThread_GetInfo
PyThread_ReInitTLS
PyThread_acquire_lock
PyThread_acquire_lock_timed
PyThread_allocate_lock
PyThread_create_key
PyThread_delete_key
PyThread_delete_key_value
PyThread_exit_thread
PyThread_free_lock
PyThread_get_key_value
PyThread_get_stacksize
PyThread_get_thread_ident
PyThread_get_thread_native_id
PyThread_init_thread
PyThread_release_lock
PyThread_set_key_value
PyThread_set_stacksize
PyThread_start_new_thread
PyThread_tss_alloc
PyThread_tss_create
PyThread_tss_delete
PyThread_tss_free
PyThread_tss_get
PyThread_tss_is_created
PyThread_tss_set
PyToken_OneChar
PyToken_ThreeChars
PyToken_TwoChars
PyTraceBack_Here
PyTraceBack_Print
PyTraceBack_Type
PyTraceMalloc_Track
PyTraceMalloc_Untrack
PyTupleIter_Type
PyTuple_GetItem
PyTuple_GetSlice
PyTuple_New
PyTuple_Pack
PyTuple_SetItem
PyTuple_Size
PyTuple_Type
PyType_ClearCache
PyType_FromModuleAndSpec
PyType_FromSpec
PyType_FromSpecWithBases
PyType_GenericAlloc
PyType_GenericNew
PyType_GetFlags
PyType_GetModule
PyType_GetModuleByDef
PyType_GetModuleState
PyType_GetName
PyType_GetQualName
PyType_GetSlot
PyType_IsSubtype
PyType_Modified
PyType_Ready
PyType_SUPPORTS_WEAKREFS
PyType_Type
PyUnicodeDecodeError_Create
PyUnicodeDecodeError_GetEncoding
PyUnicodeDecodeError_GetEnd
PyUnicodeDecodeError_GetObject
PyUnicodeDecodeError_GetReason
PyUnicodeDecodeError_GetStart
PyUnicodeDecodeError_SetEnd
PyUnicodeDecodeError_SetReason
PyUnicodeDecodeError_SetStart
PyUnicodeEncodeError_GetEncoding
PyUnicodeEncodeError_GetEnd
PyUnicodeEncodeError_GetObject
PyUnicodeEncodeError_GetReason
PyUnicodeEncodeError_GetStart
PyUnicodeEncodeError_SetEnd
PyUnicodeEncodeError_SetReason
PyUnicodeEncodeError_SetStart
PyUnicodeIter_Type
PyUnicodeTranslateError_GetEnd
PyUnicodeTranslateError_GetObject
PyUnicodeTranslateError_GetReason
PyUnicodeTranslateError_GetStart
PyUnicodeTranslateError_SetEnd
PyUnicodeTranslateError_SetReason
PyUnicodeTranslateError_SetStart
PyUnicode_Append
PyUnicode_AppendAndDel
PyUnicode_AsASCIIString
PyUnicode_AsCharmapString
PyUnicode_AsDecodedObject
PyUnicode_AsDecodedUnicode
PyUnicode_AsEncodedObject
PyUnicode_AsEncodedString
PyUnicode_AsEncodedUnicode
PyUnicode_AsLatin1String
PyUnicode_AsMBCSString
PyUnicode_AsRawUnicodeEscapeString
PyUnicode_AsUCS4
PyUnicode_AsUCS4Copy
PyUnicode_AsUTF16String
PyUnicode_AsUTF32String
PyUnicode_AsUTF8
PyUnicode_AsUTF8AndSize
PyUnicode_AsUTF8String
PyUnicode_AsUnicode
PyUnicode_AsUnicodeAndSize
PyUnicode_AsUnicodeEscapeString
PyUnicode_AsWideChar
PyUnicode_AsWideCharString
PyUnicode_BuildEncodingMap
PyUnicode_Compare
PyUnicode_CompareWithASCIIString
PyUnicode_Concat
PyUnicode_Contains
PyUnicode_CopyCharacters
PyUnicode_Count
PyUnicode_Decode
PyUnicode_DecodeASCII
PyUnicode_DecodeCharmap
PyUnicode_DecodeCodePageStateful
PyUnicode_DecodeFSDefault
PyUnicode_DecodeFSDefaultAndSize
PyUnicode_DecodeLatin1
PyUnicode_DecodeLocale
PyUnicode_DecodeLocaleAndSize
PyUnicode_DecodeMBCS
PyUnicode_DecodeMBCSStateful
PyUnicode_DecodeRawUnicodeEscape
PyUnicode_DecodeUTF16
PyUnicode_DecodeUTF16Stateful
PyUnicode_DecodeUTF32
PyUnicode_DecodeUTF32Stateful
PyUnicode_DecodeUTF7
PyUnicode_DecodeUTF7Stateful
PyUnicode_DecodeUTF8
PyUnicode_DecodeUTF8Stateful
PyUnicode_DecodeUnicodeEscape
PyUnicode_EncodeCodePage
PyUnicode_EncodeFSDefault
PyUnicode_EncodeLocale
PyUnicode_FSConverter
PyUnicode_FSDecoder
PyUnicode_Fill
PyUnicode_Find
PyUnicode_FindChar
PyUnicode_Format
PyUnicode_FromEncodedObject
PyUnicode_FromFormat
PyUnicode_FromFormatV
PyUnicode_FromKindAndData
PyUnicode_FromObject
PyUnicode_FromOrdinal
PyUnicode_FromString
PyUnicode_FromStringAndSize
PyUnicode_FromUnicode
PyUnicode_FromWideChar
PyUnicode_GetDefaultEncoding
PyUnicode_GetLength
PyUnicode_GetSize
PyUnicode_InternFromString
PyUnicode_InternImmortal
PyUnicode_InternInPlace
PyUnicode_IsIdentifier
PyUnicode_Join
PyUnicode_New
PyUnicode_Partition
PyUnicode_RPartition
PyUnicode_RSplit
PyUnicode_ReadChar
PyUnicode_Replace
PyUnicode_Resize
PyUnicode_RichCompare
PyUnicode_Split
PyUnicode_Splitlines
PyUnicode_Substring
PyUnicode_Tailmatch
PyUnicode_Translate
PyUnicode_Type
PyUnicode_WriteChar
PyVectorcall_Call
PyVectorcall_Function
PyWeakref_GetObject
PyWeakref_NewProxy
PyWeakref_NewRef
PyWideStringList_Append
PyWideStringList_Insert
PyWrapperDescr_Type
PyWrapper_New
PyZip_Type
Py_AddPendingCall
Py_AtExit
Py_BuildValue
Py_BytesWarningFlag
Py_CompileString
Py_CompileStringExFlags
Py_CompileStringFlags
Py_CompileStringObject
Py_DebugFlag
Py_DecRef
Py_DecodeLocale
Py_DontWriteBytecodeFlag
Py_EncodeLocale
Py_EndInterpreter
Py_EnterRecursiveCall
Py_Exit
Py_ExitStatusException
Py_FatalError
Py_FdIsInteractive
Py_FileSystemDefaultEncodeErrors
Py_FileSystemDefaultEncoding
Py_Finalize
Py_FinalizeEx
Py_FrozenFlag
Py_GETENV
Py_GenericAlias
Py_GenericAliasType
Py_GetArgcArgv
Py_GetBuildInfo
Py_GetCompiler
Py_GetCopyright
Py_GetExecPrefix
Py_GetPath
Py_GetPlatform
Py_GetPrefix
Py_GetProgramFullPath
Py_GetProgramName
Py_GetPythonHome
Py_GetRecursionLimit
Py_GetVersion
Py_HasFileSystemDefaultEncoding
Py_HashRandomizationFlag
Py_IgnoreEnvironmentFlag
Py_IncRef
Py_InitModule4
Py_InitNativeModule
Py_Initialize
Py_InitializeEx
Py_InitializeFromConfig
Py_InspectFlag
Py_InteractiveFlag
Py_Is
Py_IsFalse
Py_IsInitialized
Py_IsNone
Py_IsTrue
Py_IsolatedFlag
Py_LeaveRecursiveCall
Py_LegacyWindowsFSEncodingFlag
Py_LegacyWindowsStdioFlag
Py_MakePendingCalls
Py_NewInterpreter
Py_NewRef
Py_NoSiteFlag
Py_NoUserSiteDirectory
Py_OptimizeFlag
Py_PreInitialize
Py_PreInitializeFromArgs
Py_PreInitializeFromBytesArgs
Py_QuietFlag
Py_ReprEnter
Py_ReprLeave
Py_SetPath
Py_SetProgramName
Py_SetPythonHome
Py_SetRecursionLimit
Py_SetStandardStreamEncoding
Py_UTF8Mode
Py_UnbufferedStdioFlag
Py_UniversalNewlineFgets
Py_VaBuildValue
Py_VerboseFlag
Py_Version
Py_XNewRef
Py_hexdigits
_PyAST_Compile
_PyAccu_Accumulate
_PyAccu_Destroy
_PyAccu_Finish
_PyAccu_FinishAsList
_PyAccu_Init
_PyArena_AddPyObject
_PyArena_Free
_PyArena_Malloc
_PyArena_New
_PyArg_BadArgument
_PyArg_CheckPositional
_PyArg_NoKeywords
_PyArg_NoKwnames
_PyArg_NoPositional
_PyArg_ParseStack
_PyArg_ParseStackAndKeywords
_PyArg_ParseStackAndKeywords_SizeT
_PyArg_ParseStack_SizeT
_PyArg_ParseTupleAndKeywordsFast
_PyArg_ParseTupleAndKeywordsFast_SizeT
_PyArg_ParseTupleAndKeywords_SizeT
_PyArg_ParseTuple_SizeT
_PyArg_Parse_SizeT
_PyArg_UnpackKeywords
_PyArg_UnpackKeywordsWithVararg
_PyArg_UnpackStack
_PyArg_VaParseTupleAndKeywordsFast
_PyArg_VaParseTupleAndKeywordsFast_SizeT
_PyArg_VaParseTupleAndKeywords_SizeT
_PyArg_VaParse_SizeT
_PyArgv_AsWstrList
_PyAsyncGenASend_Type
_PyAsyncGenAThrow_Type
_PyAsyncGenWrappedValue_Type
_PyByteArray_empty_string
_PyBytesIOBuffer_Type
_PyBytesWriter_Alloc
_PyBytesWriter_Dealloc
_PyBytesWriter_Finish
_PyBytesWriter_Init
_PyBytesWriter_Prepare
_PyBytesWriter_Resize
_PyBytesWriter_WriteBytes
_PyBytes_DecodeEscape
_PyBytes_Find
_PyBytes_FormatEx
_PyBytes_FromHex
_PyBytes_Join
_PyBytes_Repeat
_PyBytes_Resize
_PyBytes_ReverseFind
_PyCode_CheckLineNumber
_PyCode_ConstantKey
_PyCode_GetExtra
_PyCode_New
_PyCode_SetExtra
_PyCode_Validate
_PyCodecInfo_GetIncrementalDecoder
_PyCodecInfo_GetIncrementalEncoder
_PyCodec_DecodeText
_PyCodec_EncodeText
_PyCodec_Lookup
_PyCodec_LookupTextEncoding
_PyConfig_AsDict
_PyConfig_FromDict
_PyConfig_InitCompatConfig
_PyContext_NewHamtForTests
_PyCoroWrapper_Type
_PyCrossInterpreterData_Lookup
_PyCrossInterpreterData_NewObject
_PyCrossInterpreterData_RegisterClass
_PyCrossInterpreterData_Release
_PyDeadline_Get
_PyDeadline_Init
_PyDebugAllocatorStats
_PyDictView_Intersect
_PyDictView_New
_PyDict_CheckConsistency
_PyDict_ContainsId
_PyDict_Contains_KnownHash
_PyDict_DebugMallocStats
_PyDict_DelItemId
_PyDict_DelItemIf
_PyDict_DelItem_KnownHash
_PyDict_GetItemIdWithError
_PyDict_GetItemStringWithError
_PyDict_GetItemWithError
_PyDict_GetItem_KnownHash
_PyDict_HasOnlyStringKeys
_PyDict_MaybeUntrack
_PyDict_MergeEx
_PyDict_NewPresized
_PyDict_Next
_PyDict_Pop
_PyDict_SetItemId
_PyDict_SetItem_KnownHash
_PyDict_SizeOf
_PyErr_BadInternalCall
_PyErr_ChainExceptions
_PyErr_ChainStackItem
_PyErr_CheckSignals
_PyErr_CheckSignalsTstate
_PyErr_Clear
_PyErr_Display
_PyErr_ExceptionMatches
_PyErr_Fetch
_PyErr_Format
_PyErr_FormatFromCause
_PyErr_FormatFromCauseTstate
_PyErr_GetExcInfo
_PyErr_GetHandledException
_PyErr_GetTopmostException
_PyErr_NoMemory
_PyErr_NormalizeException
_PyErr_Print
_PyErr_ProgramDecodedTextObject
_PyErr_Restore
_PyErr_SetHandledException
_PyErr_SetKeyError
_PyErr_SetNone
_PyErr_SetObject
_PyErr_SetString
_PyErr_StackItemToExcInfoTuple
_PyErr_TrySetFromCause
_PyErr_WriteUnraisableMsg
_PyEval_AddPendingCall
_PyEval_EvalFrameDefault
_PyEval_GetBuiltin
_PyEval_GetBuiltinId
_PyEval_GetSwitchInterval
_PyEval_RequestCodeExtraIndex
_PyEval_SetProfile
_PyEval_SetSwitchInterval
_PyEval_SetTrace
_PyEval_SignalAsyncExc
_PyEval_SignalReceived
_PyEval_SliceIndex
_PyEval_SliceIndexNotNone
_PyFloat_DebugMallocStats
_PyFloat_FormatAdvancedWriter
_PyFrame_IsEntryFrame
_PyFunction_Vectorcall
_PyGILState_GetInterpreterStateUnsafe
_PyGen_FetchStopIterationValue
_PyGen_Finalize
_PyGen_SetStopIterationValue
_PyImport_AcquireLock
_PyImport_FixupBuiltin
_PyImport_FixupExtensionObject
_PyImport_FrozenAliases
_PyImport_FrozenBootstrap
_PyImport_FrozenStdlib
_PyImport_FrozenTest
_PyImport_GetModuleAttr
_PyImport_GetModuleAttrString
_PyImport_GetModuleId
_PyImport_IsInitialized
_PyImport_ReleaseLock
_PyImport_SetModule
_PyImport_SetModuleString
_PyInterpreterID_LookUp
_PyInterpreterID_New
_PyInterpreterID_Type
_PyInterpreterState_Enable
_PyInterpreterState_GetConfig
_PyInterpreterState_GetConfigCopy
_PyInterpreterState_GetEvalFrameFunc
_PyInterpreterState_GetIDObject
_PyInterpreterState_GetMainModule
_PyInterpreterState_IDDecref
_PyInterpreterState_IDIncref
_PyInterpreterState_IDInitref
_PyInterpreterState_LookUpID
_PyInterpreterState_RequireIDRef
_PyInterpreterState_RequiresIDRef
_PyInterpreterState_SetConfig
_PyInterpreterState_SetEvalFrameFunc
_PyList_DebugMallocStats
_PyList_Extend
_PyLong_AsByteArray
_PyLong_AsInt
_PyLong_AsTime_t
_PyLong_Copy
_PyLong_DigitValue
_PyLong_DivmodNear
_PyLong_FileDescriptor_Converter
_PyLong_Format
_PyLong_FormatAdvancedWriter
_PyLong_FormatBytesWriter
_PyLong_FormatWriter
_PyLong_Frexp
_PyLong_FromByteArray
_PyLong_FromBytes
_PyLong_FromTime_t
_PyLong_GCD
_PyLong_Lshift
_PyLong_New
_PyLong_NumBits
_PyLong_Rshift
_PyLong_Sign
_PyLong_Size_t_Converter
_PyLong_UnsignedInt_Converter
_PyLong_UnsignedLongLong_Converter
_PyLong_UnsignedLong_Converter
_PyLong_UnsignedShort_Converter
_PyManagedBuffer_Type
_PyMem_GetAllocatorName
_PyMem_GetCurrentAllocatorName
_PyMem_RawStrdup
_PyMem_RawWcsdup
_PyMem_SetDefaultAllocator
_PyMem_SetupAllocators
_PyMem_Strdup
_PyMethodWrapper_Type
_PyModuleSpec_IsInitializing
_PyModule_Add
_PyModule_Clear
_PyModule_ClearDict
_PyModule_CreateInitialized
_PyNamespace_New
_PyNamespace_Type
_PyNone_Type
_PyNotImplemented_Type
_PyNumber_Index
_PyOS_InterruptOccurred
_PyOS_IsMainThread
_PyOS_ReadlineTState
_PyOS_SigintEvent
_PyOS_URandom
_PyOS_URandomNonblock
_PyObject_AssertFailed
_PyObject_Call
_PyObject_CallFunction_SizeT
_PyObject_CallMethod
_PyObject_CallMethodId
_PyObject_CallMethodIdObjArgs
_PyObject_CallMethodId_SizeT
_PyObject_CallMethod_SizeT
_PyObject_Call_Prepend
_PyObject_CheckConsistency
_PyObject_CheckCrossInterpreterData
_PyObject_DebugMallocStats
_PyObject_DebugTypeStats
_PyObject_Dump
_PyObject_FastCall
_PyObject_FastCallDictTstate
_PyObject_FunctionStr
_PyObject_GC_New
_PyObject_GC_NewVar
_PyObject_GC_Resize
_PyObject_GenericGetAttrWithDict
_PyObject_GenericSetAttrWithDict
_PyObject_GetAttrId
_PyObject_GetCrossInterpreterData
_PyObject_GetDictPtr
_PyObject_GetMethod
_PyObject_GetState
_PyObject_HasLen
_PyObject_IsAbstract
_PyObject_IsFreed
_PyObject_LookupAttr
_PyObject_LookupAttrId
_PyObject_LookupSpecial
_PyObject_LookupSpecialId
_PyObject_MakeTpCall
_PyObject_New
_PyObject_NewVar
_PyObject_NextNotImplemented
_PyObject_RealIsInstance
_PyObject_RealIsSubclass
_PyObject_SetAttrId
_PyParser_TokenNames
_PyPathConfig_ClearGlobal
_PyPreConfig_InitCompatConfig
_PyRun_AnyFileObject
_PyRun_InteractiveLoopObject
_PyRun_SimpleFileObject
_PyRuntime
_PyRuntimeState_Fini
_PyRuntimeState_Init
_PyRuntime_Finalize
_PyRuntime_Initialize
_PySequence_BytesToCharpArray
_PySequence_IterSearch
_PySet_Dummy
_PySet_NextEntry
_PySet_Update
_PySlice_FromIndices
_PySlice_GetLongIndices
_PyStack_AsDict
_PyState_AddModule
_PyStructSequence_InitType
_PyStructSequence_NewType
_PySys_GetAttr
_PySys_GetSizeOf
_PyThreadState_DeleteCurrent
_PyThreadState_DeleteExcept
_PyThreadState_GetDict
_PyThreadState_Init
_PyThreadState_Prealloc
_PyThreadState_SetCurrent
_PyThreadState_Swap
_PyThreadState_UncheckedGet
_PyThread_CurrentExceptions
_PyThread_CurrentFrames
_PyTime_Add
_PyTime_As100Nanoseconds
_PyTime_AsMicroseconds
_PyTime_AsMilliseconds
_PyTime_AsNanoseconds
_PyTime_AsNanosecondsObject
_PyTime_AsSecondsDouble
_PyTime_AsTimeval
_PyTime_AsTimevalTime_t
_PyTime_AsTimeval_clamp
_PyTime_FromMillisecondsObject
_PyTime_FromNanoseconds
_PyTime_FromNanosecondsObject
_PyTime_FromSeconds
_PyTime_FromSecondsObject
_PyTime_GetMonotonicClock
_PyTime_GetMonotonicClockWithInfo
_PyTime_GetPerfCounter
_PyTime_GetPerfCounterWithInfo
_PyTime_GetSystemClock
_PyTime_GetSystemClockWithInfo
_PyTime_MulDiv
_PyTime_ObjectToTime_t
_PyTime_ObjectToTimespec
_PyTime_ObjectToTimeval
_PyTime_gmtime
_PyTime_localtime
_PyTraceBack_FromFrame
_PyTraceBack_Print_Indented
_PyTraceMalloc_GetTraceback
_PyTraceback_Add
_PyTrash_begin
_PyTrash_cond
_PyTrash_end
_PyTuple_DebugMallocStats
_PyTuple_MaybeUntrack
_PyTuple_Resize
_PyType_CalculateMetaclass
_PyType_CheckConsistency
_PyType_GetDocFromInternalDoc
_PyType_GetTextSignatureFromInternalDoc
_PyType_Lookup
_PyType_LookupId
_PyType_Name
_PyUnicodeTranslateError_Create
_PyUnicodeWriter_Dealloc
_PyUnicodeWriter_Finish
_PyUnicodeWriter_Init
_PyUnicodeWriter_PrepareInternal
_PyUnicodeWriter_PrepareKindInternal
_PyUnicodeWriter_WriteASCIIString
_PyUnicodeWriter_WriteChar
_PyUnicodeWriter_WriteLatin1String
_PyUnicodeWriter_WriteStr
_PyUnicodeWriter_WriteSubstring
_PyUnicode_AsASCIIString
_PyUnicode_AsLatin1String
_PyUnicode_AsUTF8String
_PyUnicode_AsUnicode
_PyUnicode_CheckConsistency
_PyUnicode_Copy
_PyUnicode_DecodeRawUnicodeEscapeStateful
_PyUnicode_DecodeUnicodeEscapeInternal
_PyUnicode_DecodeUnicodeEscapeStateful
_PyUnicode_EQ
_PyUnicode_EncodeCharmap
_PyUnicode_EncodeUTF16
_PyUnicode_EncodeUTF32
_PyUnicode_EncodeUTF7
_PyUnicode_Equal
_PyUnicode_EqualToASCIIId
_PyUnicode_EqualToASCIIString
_PyUnicode_FastCopyCharacters
_PyUnicode_FastFill
_PyUnicode_FindMaxChar
_PyUnicode_FormatAdvancedWriter
_PyUnicode_FormatLong
_PyUnicode_FromASCII
_PyUnicode_FromId
_PyUnicode_InsertThousandsGrouping
_PyUnicode_IsAlpha
_PyUnicode_IsCaseIgnorable
_PyUnicode_IsCased
_PyUnicode_IsDecimalDigit
_PyUnicode_IsDigit
_PyUnicode_IsLinebreak
_PyUnicode_IsLowercase
_PyUnicode_IsNumeric
_PyUnicode_IsPrintable
_PyUnicode_IsTitlecase
_PyUnicode_IsUppercase
_PyUnicode_IsWhitespace
_PyUnicode_IsXidContinue
_PyUnicode_IsXidStart
_PyUnicode_JoinArray
_PyUnicode_Ready
_PyUnicode_ScanIdentifier
_PyUnicode_ToDecimalDigit
_PyUnicode_ToDigit
_PyUnicode_ToFoldedFull
_PyUnicode_ToLowerFull
_PyUnicode_ToLowercase
_PyUnicode_ToNumeric
_PyUnicode_ToTitleFull
_PyUnicode_ToTitlecase
_PyUnicode_ToUpperFull
_PyUnicode_ToUppercase
_PyUnicode_TransformDecimalAndSpaceToASCII
_PyUnicode_WideCharString_Converter
_PyUnicode_WideCharString_Opt_Converter
_PyUnicode_XStrip
_PyWarnings_Init
_PyWeakref_CallableProxyType
_PyWeakref_ClearRef
_PyWeakref_GetWeakrefCount
_PyWeakref_ProxyType
_PyWeakref_RefType
_PyWideStringList_AsList
_PyWideStringList_Clear
_PyWideStringList_Copy
_PyWideStringList_Extend
_PyWindowsConsoleIO_Type
_Py_BreakPoint
_Py_BuildValue_SizeT
_Py_CheckFunctionResult
_Py_CheckRecursiveCall
_Py_ClearArgcArgv
_Py_ClearStandardStreamEncoding
_Py_CoerceLegacyLocale
_Py_Dealloc
_Py_DecRef
_Py_DecodeLocaleEx
_Py_DecodeUTF8Ex
_Py_DecodeUTF8_surrogateescape
_Py_DisplaySourceLine
_Py_DumpASCII
_Py_DumpDecimal
_Py_DumpExtensionModules
_Py_DumpHexadecimal
_Py_DumpTraceback
_Py_DumpTracebackThreads
_Py_EllipsisObject
_Py_EncodeLocaleEx
_Py_EncodeLocaleRaw
_Py_EncodeUTF8Ex
_Py_FalseStruct
_Py_FatalErrorFormat
_Py_FatalErrorFunc
_Py_FatalError_TstateNULL
_Py_FatalRefcountErrorFunc
_Py_FdIsInteractive
_Py_FreeCharPArray
_Py_GetAllocatedBlocks
_Py_GetConfig
_Py_GetConfigsAsDict
_Py_GetEnv
_Py_GetErrorHandler
_Py_GetForceASCII
_Py_GetLocaleEncoding
_Py_GetLocaleEncodingObject
_Py_GetLocaleconvNumeric
_Py_HandleSystemExit
_Py_HasFileSystemDefaultEncodeErrors
_Py_HashBytes
_Py_HashDouble
_Py_HashPointer
_Py_HashPointerRaw
_Py_HashSecret
_Py_IncRef
_Py_InitializeMain
_Py_IsCoreInitialized
_Py_IsFinalizing
_Py_IsLocaleCoercionTarget
_Py_LegacyLocaleDetected
_Py_NewInterpreter
_Py_NewReference
_Py_NoneStruct
_Py_NotImplementedStruct
_Py_PackageContext
_Py_PreInitializeFromConfig
_Py_PreInitializeFromPyArgv
_Py_ResetForceASCII
_Py_RestoreSignals
_Py_SetLocaleFromEnv
_Py_SetProgramFullPath
_Py_SourceAsString
_Py_SwappedOp
_Py_TrueStruct
_Py_UTF8_Edit_Cost
_Py_UnhandledKeyboardInterrupt
_Py_UniversalNewlineFgetsWithSize
_Py_VaBuildStack
_Py_VaBuildStack_SizeT
_Py_VaBuildValue_SizeT
_Py_WriteIndent
_Py_WriteIndentedMargin
_Py_add_one_to_index_C
_Py_add_one_to_index_F
_Py_ascii_whitespace
_Py_c_abs
_Py_c_diff
_Py_c_neg
_Py_c_pow
_Py_c_prod
_Py_c_quot
_Py_c_sum
_Py_closerange
_Py_convert_optional_to_ssize_t
_Py_ctype_table
_Py_ctype_tolower
_Py_ctype_toupper
_Py_device_encoding
_Py_dg_dtoa
_Py_dg_freedtoa
_Py_dg_infinity
_Py_dg_stdnan
_Py_dg_strtod
_Py_dup
_Py_fopen_obj
_Py_fstat
_Py_fstat_noraise
_Py_get_env_flag
_Py_get_inheritable
_Py_get_osfhandle
_Py_get_osfhandle_noraise
_Py_get_xoption
_Py_gitidentifier
_Py_gitversion
_Py_hashtable_clear
_Py_hashtable_compare_direct
_Py_hashtable_destroy
_Py_hashtable_foreach
_Py_hashtable_get
_Py_hashtable_hash_ptr
_Py_hashtable_new
_Py_hashtable_new_full
_Py_hashtable_set
_Py_hashtable_size
_Py_hashtable_steal
_Py_normpath
_Py_open
_Py_open_noraise
_Py_open_osfhandle
_Py_open_osfhandle_noraise
_Py_parse_inf_or_nan
_Py_read
_Py_set_inheritable
_Py_set_inheritable_async_safe
_Py_stat
_Py_str_to_int
_Py_strhex
_Py_strhex_bytes
_Py_strhex_bytes_with_sep
_Py_strhex_with_sep
_Py_string_to_number_with_underscores
_Py_tracemalloc_config
_Py_wfopen
_Py_wgetcwd
_Py_write
_Py_write_noraise
g_pAKPluginList
init_tinyxml2
inittaggeddict
